
char.o:     file format elf32-i386


Disassembly of section .text:

00000000 <_ZN9CharacterC1ERKNSt7__cxx1112basic_stringIcSt11char_traitsIcESaIcEEES7_ff>:
       0:	55                   	push   %ebp
       1:	89 e5                	mov    %esp,%ebp
       3:	57                   	push   %edi
       4:	56                   	push   %esi
       5:	53                   	push   %ebx
       6:	81 ec 3c 01 00 00    	sub    $0x13c,%esp
       c:	e8 fc ff ff ff       	call   d <_ZN9CharacterC1ERKNSt7__cxx1112basic_stringIcSt11char_traitsIcESaIcEEES7_ff+0xd>
      11:	81 c6 02 00 00 00    	add    $0x2,%esi
      17:	8b 45 08             	mov    0x8(%ebp),%eax
      1a:	89 85 d4 fe ff ff    	mov    %eax,-0x12c(%ebp)
      20:	8b 45 0c             	mov    0xc(%ebp),%eax
      23:	89 85 d0 fe ff ff    	mov    %eax,-0x130(%ebp)
      29:	8b 45 10             	mov    0x10(%ebp),%eax
      2c:	89 85 cc fe ff ff    	mov    %eax,-0x134(%ebp)
      32:	65 a1 14 00 00 00    	mov    %gs:0x14,%eax
      38:	89 45 e4             	mov    %eax,-0x1c(%ebp)
      3b:	31 c0                	xor    %eax,%eax
      3d:	8b 85 d4 fe ff ff    	mov    -0x12c(%ebp),%eax
      43:	83 ec 0c             	sub    $0xc,%esp
      46:	50                   	push   %eax
      47:	89 f3                	mov    %esi,%ebx
      49:	e8 fc ff ff ff       	call   4a <_ZN9CharacterC1ERKNSt7__cxx1112basic_stringIcSt11char_traitsIcESaIcEEES7_ff+0x4a>
      4e:	83 c4 10             	add    $0x10,%esp
      51:	8b 85 d4 fe ff ff    	mov    -0x12c(%ebp),%eax
      57:	83 c0 18             	add    $0x18,%eax
      5a:	83 ec 0c             	sub    $0xc,%esp
      5d:	50                   	push   %eax
      5e:	89 f3                	mov    %esi,%ebx
      60:	e8 fc ff ff ff       	call   61 <_ZN9CharacterC1ERKNSt7__cxx1112basic_stringIcSt11char_traitsIcESaIcEEES7_ff+0x61>
      65:	83 c4 10             	add    $0x10,%esp
      68:	8b 85 d4 fe ff ff    	mov    -0x12c(%ebp),%eax
      6e:	83 c0 30             	add    $0x30,%eax
      71:	83 ec 04             	sub    $0x4,%esp
      74:	d9 ee                	fldz   
      76:	8d 64 24 fc          	lea    -0x4(%esp),%esp
      7a:	d9 1c 24             	fstps  (%esp)
      7d:	d9 ee                	fldz   
      7f:	8d 64 24 fc          	lea    -0x4(%esp),%esp
      83:	d9 1c 24             	fstps  (%esp)
      86:	50                   	push   %eax
      87:	e8 fc ff ff ff       	call   88 <_ZN9CharacterC1ERKNSt7__cxx1112basic_stringIcSt11char_traitsIcESaIcEEES7_ff+0x88>
      8c:	83 c4 10             	add    $0x10,%esp
      8f:	8b 85 d4 fe ff ff    	mov    -0x12c(%ebp),%eax
      95:	05 a4 00 00 00       	add    $0xa4,%eax
      9a:	83 ec 0c             	sub    $0xc,%esp
      9d:	50                   	push   %eax
      9e:	e8 fc ff ff ff       	call   9f <_ZN9CharacterC1ERKNSt7__cxx1112basic_stringIcSt11char_traitsIcESaIcEEES7_ff+0x9f>
      a3:	83 c4 10             	add    $0x10,%esp
      a6:	8b 85 d4 fe ff ff    	mov    -0x12c(%ebp),%eax
      ac:	05 c0 00 00 00       	add    $0xc0,%eax
      b1:	83 ec 0c             	sub    $0xc,%esp
      b4:	50                   	push   %eax
      b5:	e8 fc ff ff ff       	call   b6 <_ZN9CharacterC1ERKNSt7__cxx1112basic_stringIcSt11char_traitsIcESaIcEEES7_ff+0xb6>
      ba:	83 c4 10             	add    $0x10,%esp
      bd:	8b 85 d4 fe ff ff    	mov    -0x12c(%ebp),%eax
      c3:	05 dc 00 00 00       	add    $0xdc,%eax
      c8:	83 ec 0c             	sub    $0xc,%esp
      cb:	50                   	push   %eax
      cc:	e8 fc ff ff ff       	call   cd <_ZN9CharacterC1ERKNSt7__cxx1112basic_stringIcSt11char_traitsIcESaIcEEES7_ff+0xcd>
      d1:	83 c4 10             	add    $0x10,%esp
      d4:	8b 85 d4 fe ff ff    	mov    -0x12c(%ebp),%eax
      da:	8d 98 f8 00 00 00    	lea    0xf8(%eax),%ebx
      e0:	b9 00 00 00 00       	mov    $0x0,%ecx
      e5:	b8 1c 00 00 00       	mov    $0x1c,%eax
      ea:	83 e0 fc             	and    $0xfffffffc,%eax
      ed:	89 c2                	mov    %eax,%edx
      ef:	b8 00 00 00 00       	mov    $0x0,%eax
      f4:	89 8c 05 f4 fe ff ff 	mov    %ecx,-0x10c(%ebp,%eax,1)
      fb:	83 c0 04             	add    $0x4,%eax
      fe:	39 d0                	cmp    %edx,%eax
     100:	72 f2                	jb     f4 <_ZN9CharacterC1ERKNSt7__cxx1112basic_stringIcSt11char_traitsIcESaIcEEES7_ff+0xf4>
     102:	83 ec 0c             	sub    $0xc,%esp
     105:	8d 85 f4 fe ff ff    	lea    -0x10c(%ebp),%eax
     10b:	50                   	push   %eax
     10c:	e8 fc ff ff ff       	call   10d <_ZN9CharacterC1ERKNSt7__cxx1112basic_stringIcSt11char_traitsIcESaIcEEES7_ff+0x10d>
     111:	83 c4 10             	add    $0x10,%esp
     114:	83 ec 04             	sub    $0x4,%esp
     117:	8d 85 f4 fe ff ff    	lea    -0x10c(%ebp),%eax
     11d:	50                   	push   %eax
     11e:	8d 86 00 00 00 00    	lea    0x0(%esi),%eax
     124:	50                   	push   %eax
     125:	8d 85 48 ff ff ff    	lea    -0xb8(%ebp),%eax
     12b:	50                   	push   %eax
     12c:	e8 fc ff ff ff       	call   12d <_ZN9CharacterC1ERKNSt7__cxx1112basic_stringIcSt11char_traitsIcESaIcEEES7_ff+0x12d>
     131:	83 c4 10             	add    $0x10,%esp
     134:	b9 00 00 00 00       	mov    $0x0,%ecx
     139:	b8 1c 00 00 00       	mov    $0x1c,%eax
     13e:	83 e0 fc             	and    $0xfffffffc,%eax
     141:	89 c2                	mov    %eax,%edx
     143:	b8 00 00 00 00       	mov    $0x0,%eax
     148:	89 8c 05 10 ff ff ff 	mov    %ecx,-0xf0(%ebp,%eax,1)
     14f:	83 c0 04             	add    $0x4,%eax
     152:	39 d0                	cmp    %edx,%eax
     154:	72 f2                	jb     148 <_ZN9CharacterC1ERKNSt7__cxx1112basic_stringIcSt11char_traitsIcESaIcEEES7_ff+0x148>
     156:	83 ec 0c             	sub    $0xc,%esp
     159:	8d 85 10 ff ff ff    	lea    -0xf0(%ebp),%eax
     15f:	50                   	push   %eax
     160:	e8 fc ff ff ff       	call   161 <_ZN9CharacterC1ERKNSt7__cxx1112basic_stringIcSt11char_traitsIcESaIcEEES7_ff+0x161>
     165:	83 c4 10             	add    $0x10,%esp
     168:	83 ec 04             	sub    $0x4,%esp
     16b:	8d 85 10 ff ff ff    	lea    -0xf0(%ebp),%eax
     171:	50                   	push   %eax
     172:	8d 86 0c 00 00 00    	lea    0xc(%esi),%eax
     178:	50                   	push   %eax
     179:	8d 85 48 ff ff ff    	lea    -0xb8(%ebp),%eax
     17f:	83 c0 34             	add    $0x34,%eax
     182:	50                   	push   %eax
     183:	e8 fc ff ff ff       	call   184 <_ZN9CharacterC1ERKNSt7__cxx1112basic_stringIcSt11char_traitsIcESaIcEEES7_ff+0x184>
     188:	83 c4 10             	add    $0x10,%esp
     18b:	b9 00 00 00 00       	mov    $0x0,%ecx
     190:	b8 1c 00 00 00       	mov    $0x1c,%eax
     195:	83 e0 fc             	and    $0xfffffffc,%eax
     198:	89 c2                	mov    %eax,%edx
     19a:	b8 00 00 00 00       	mov    $0x0,%eax
     19f:	89 8c 05 2c ff ff ff 	mov    %ecx,-0xd4(%ebp,%eax,1)
     1a6:	83 c0 04             	add    $0x4,%eax
     1a9:	39 d0                	cmp    %edx,%eax
     1ab:	72 f2                	jb     19f <_ZN9CharacterC1ERKNSt7__cxx1112basic_stringIcSt11char_traitsIcESaIcEEES7_ff+0x19f>
     1ad:	83 ec 0c             	sub    $0xc,%esp
     1b0:	8d 85 2c ff ff ff    	lea    -0xd4(%ebp),%eax
     1b6:	50                   	push   %eax
     1b7:	e8 fc ff ff ff       	call   1b8 <_ZN9CharacterC1ERKNSt7__cxx1112basic_stringIcSt11char_traitsIcESaIcEEES7_ff+0x1b8>
     1bc:	83 c4 10             	add    $0x10,%esp
     1bf:	83 ec 04             	sub    $0x4,%esp
     1c2:	8d 85 2c ff ff ff    	lea    -0xd4(%ebp),%eax
     1c8:	50                   	push   %eax
     1c9:	8d 86 14 00 00 00    	lea    0x14(%esi),%eax
     1cf:	50                   	push   %eax
     1d0:	8d 85 48 ff ff ff    	lea    -0xb8(%ebp),%eax
     1d6:	83 c0 68             	add    $0x68,%eax
     1d9:	50                   	push   %eax
     1da:	e8 fc ff ff ff       	call   1db <_ZN9CharacterC1ERKNSt7__cxx1112basic_stringIcSt11char_traitsIcESaIcEEES7_ff+0x1db>
     1df:	83 c4 10             	add    $0x10,%esp
     1e2:	8d 85 48 ff ff ff    	lea    -0xb8(%ebp),%eax
     1e8:	89 85 c0 fe ff ff    	mov    %eax,-0x140(%ebp)
     1ee:	c7 85 c4 fe ff ff 03 	movl   $0x3,-0x13c(%ebp)
     1f5:	00 00 00 
     1f8:	83 ec 0c             	sub    $0xc,%esp
     1fb:	8d 85 e3 fe ff ff    	lea    -0x11d(%ebp),%eax
     201:	50                   	push   %eax
     202:	e8 fc ff ff ff       	call   203 <_ZN9CharacterC1ERKNSt7__cxx1112basic_stringIcSt11char_traitsIcESaIcEEES7_ff+0x203>
     207:	83 c4 10             	add    $0x10,%esp
     20a:	83 ec 04             	sub    $0x4,%esp
     20d:	8d 85 e3 fe ff ff    	lea    -0x11d(%ebp),%eax
     213:	50                   	push   %eax
     214:	8d 85 e2 fe ff ff    	lea    -0x11e(%ebp),%eax
     21a:	50                   	push   %eax
     21b:	8d 85 e1 fe ff ff    	lea    -0x11f(%ebp),%eax
     221:	50                   	push   %eax
     222:	6a 00                	push   $0x0
     224:	ff b5 c4 fe ff ff    	pushl  -0x13c(%ebp)
     22a:	ff b5 c0 fe ff ff    	pushl  -0x140(%ebp)
     230:	53                   	push   %ebx
     231:	e8 fc ff ff ff       	call   232 <_ZN9CharacterC1ERKNSt7__cxx1112basic_stringIcSt11char_traitsIcESaIcEEES7_ff+0x232>
     236:	83 c4 20             	add    $0x20,%esp
     239:	83 ec 0c             	sub    $0xc,%esp
     23c:	8d 85 e3 fe ff ff    	lea    -0x11d(%ebp),%eax
     242:	50                   	push   %eax
     243:	e8 fc ff ff ff       	call   244 <_ZN9CharacterC1ERKNSt7__cxx1112basic_stringIcSt11char_traitsIcESaIcEEES7_ff+0x244>
     248:	83 c4 10             	add    $0x10,%esp
     24b:	8d 9d 48 ff ff ff    	lea    -0xb8(%ebp),%ebx
     251:	81 c3 9c 00 00 00    	add    $0x9c,%ebx
     257:	8d 85 48 ff ff ff    	lea    -0xb8(%ebp),%eax
     25d:	39 c3                	cmp    %eax,%ebx
     25f:	74 11                	je     272 <_ZN9CharacterC1ERKNSt7__cxx1112basic_stringIcSt11char_traitsIcESaIcEEES7_ff+0x272>
     261:	83 eb 34             	sub    $0x34,%ebx
     264:	83 ec 0c             	sub    $0xc,%esp
     267:	53                   	push   %ebx
     268:	e8 fc ff ff ff       	call   269 <_ZN9CharacterC1ERKNSt7__cxx1112basic_stringIcSt11char_traitsIcESaIcEEES7_ff+0x269>
     26d:	83 c4 10             	add    $0x10,%esp
     270:	eb e5                	jmp    257 <_ZN9CharacterC1ERKNSt7__cxx1112basic_stringIcSt11char_traitsIcESaIcEEES7_ff+0x257>
     272:	83 ec 0c             	sub    $0xc,%esp
     275:	8d 85 2c ff ff ff    	lea    -0xd4(%ebp),%eax
     27b:	50                   	push   %eax
     27c:	e8 fc ff ff ff       	call   27d <_ZN9CharacterC1ERKNSt7__cxx1112basic_stringIcSt11char_traitsIcESaIcEEES7_ff+0x27d>
     281:	83 c4 10             	add    $0x10,%esp
     284:	83 ec 0c             	sub    $0xc,%esp
     287:	8d 85 10 ff ff ff    	lea    -0xf0(%ebp),%eax
     28d:	50                   	push   %eax
     28e:	e8 fc ff ff ff       	call   28f <_ZN9CharacterC1ERKNSt7__cxx1112basic_stringIcSt11char_traitsIcESaIcEEES7_ff+0x28f>
     293:	83 c4 10             	add    $0x10,%esp
     296:	83 ec 0c             	sub    $0xc,%esp
     299:	8d 85 f4 fe ff ff    	lea    -0x10c(%ebp),%eax
     29f:	50                   	push   %eax
     2a0:	e8 fc ff ff ff       	call   2a1 <_ZN9CharacterC1ERKNSt7__cxx1112basic_stringIcSt11char_traitsIcESaIcEEES7_ff+0x2a1>
     2a5:	83 c4 10             	add    $0x10,%esp
     2a8:	8b 85 d4 fe ff ff    	mov    -0x12c(%ebp),%eax
     2ae:	05 14 01 00 00       	add    $0x114,%eax
     2b3:	83 ec 0c             	sub    $0xc,%esp
     2b6:	50                   	push   %eax
     2b7:	e8 fc ff ff ff       	call   2b8 <_ZN9CharacterC1ERKNSt7__cxx1112basic_stringIcSt11char_traitsIcESaIcEEES7_ff+0x2b8>
     2bc:	83 c4 10             	add    $0x10,%esp
     2bf:	8b 85 d4 fe ff ff    	mov    -0x12c(%ebp),%eax
     2c5:	05 20 01 00 00       	add    $0x120,%eax
     2ca:	83 ec 0c             	sub    $0xc,%esp
     2cd:	50                   	push   %eax
     2ce:	e8 fc ff ff ff       	call   2cf <_ZN9CharacterC1ERKNSt7__cxx1112basic_stringIcSt11char_traitsIcESaIcEEES7_ff+0x2cf>
     2d3:	83 c4 10             	add    $0x10,%esp
     2d6:	8b 85 d4 fe ff ff    	mov    -0x12c(%ebp),%eax
     2dc:	05 2c 01 00 00       	add    $0x12c,%eax
     2e1:	83 ec 0c             	sub    $0xc,%esp
     2e4:	50                   	push   %eax
     2e5:	e8 fc ff ff ff       	call   2e6 <_ZN9CharacterC1ERKNSt7__cxx1112basic_stringIcSt11char_traitsIcESaIcEEES7_ff+0x2e6>
     2ea:	83 c4 10             	add    $0x10,%esp
     2ed:	8d 85 2c ff ff ff    	lea    -0xd4(%ebp),%eax
     2f3:	83 ec 0c             	sub    $0xc,%esp
     2f6:	50                   	push   %eax
     2f7:	89 f3                	mov    %esi,%ebx
     2f9:	e8 fc ff ff ff       	call   2fa <_ZN9CharacterC1ERKNSt7__cxx1112basic_stringIcSt11char_traitsIcESaIcEEES7_ff+0x2fa>
     2fe:	83 c4 0c             	add    $0xc,%esp
     301:	8d 85 10 ff ff ff    	lea    -0xf0(%ebp),%eax
     307:	83 ec 08             	sub    $0x8,%esp
     30a:	8d 95 2c ff ff ff    	lea    -0xd4(%ebp),%edx
     310:	52                   	push   %edx
     311:	50                   	push   %eax
     312:	e8 fc ff ff ff       	call   313 <_ZN9CharacterC1ERKNSt7__cxx1112basic_stringIcSt11char_traitsIcESaIcEEES7_ff+0x313>
     317:	83 c4 0c             	add    $0xc,%esp
     31a:	8d 85 f4 fe ff ff    	lea    -0x10c(%ebp),%eax
     320:	83 ec 04             	sub    $0x4,%esp
     323:	ff b5 cc fe ff ff    	pushl  -0x134(%ebp)
     329:	8d 95 2c ff ff ff    	lea    -0xd4(%ebp),%edx
     32f:	52                   	push   %edx
     330:	50                   	push   %eax
     331:	e8 fc ff ff ff       	call   332 <_ZN9CharacterC1ERKNSt7__cxx1112basic_stringIcSt11char_traitsIcESaIcEEES7_ff+0x332>
     336:	83 c4 0c             	add    $0xc,%esp
     339:	83 ec 08             	sub    $0x8,%esp
     33c:	8d 85 10 ff ff ff    	lea    -0xf0(%ebp),%eax
     342:	50                   	push   %eax
     343:	8d 85 f4 fe ff ff    	lea    -0x10c(%ebp),%eax
     349:	50                   	push   %eax
     34a:	e8 fc ff ff ff       	call   34b <_ZN9CharacterC1ERKNSt7__cxx1112basic_stringIcSt11char_traitsIcESaIcEEES7_ff+0x34b>
     34f:	83 c4 10             	add    $0x10,%esp
     352:	84 c0                	test   %al,%al
     354:	74 72                	je     3c8 <_ZN9CharacterC1ERKNSt7__cxx1112basic_stringIcSt11char_traitsIcESaIcEEES7_ff+0x3c8>
     356:	83 ec 0c             	sub    $0xc,%esp
     359:	6a 08                	push   $0x8
     35b:	89 f3                	mov    %esi,%ebx
     35d:	e8 fc ff ff ff       	call   35e <_ZN9CharacterC1ERKNSt7__cxx1112basic_stringIcSt11char_traitsIcESaIcEEES7_ff+0x35e>
     362:	83 c4 10             	add    $0x10,%esp
     365:	89 c7                	mov    %eax,%edi
     367:	8d 85 48 ff ff ff    	lea    -0xb8(%ebp),%eax
     36d:	83 ec 04             	sub    $0x4,%esp
     370:	ff b5 cc fe ff ff    	pushl  -0x134(%ebp)
     376:	8d 96 1a 00 00 00    	lea    0x1a(%esi),%edx
     37c:	52                   	push   %edx
     37d:	50                   	push   %eax
     37e:	e8 fc ff ff ff       	call   37f <_ZN9CharacterC1ERKNSt7__cxx1112basic_stringIcSt11char_traitsIcESaIcEEES7_ff+0x37f>
     383:	83 c4 0c             	add    $0xc,%esp
     386:	83 ec 08             	sub    $0x8,%esp
     389:	8d 85 48 ff ff ff    	lea    -0xb8(%ebp),%eax
     38f:	50                   	push   %eax
     390:	57                   	push   %edi
     391:	89 f3                	mov    %esi,%ebx
     393:	e8 fc ff ff ff       	call   394 <_ZN9CharacterC1ERKNSt7__cxx1112basic_stringIcSt11char_traitsIcESaIcEEES7_ff+0x394>
     398:	83 c4 10             	add    $0x10,%esp
     39b:	83 ec 0c             	sub    $0xc,%esp
     39e:	8d 85 48 ff ff ff    	lea    -0xb8(%ebp),%eax
     3a4:	50                   	push   %eax
     3a5:	89 f3                	mov    %esi,%ebx
     3a7:	e8 fc ff ff ff       	call   3a8 <_ZN9CharacterC1ERKNSt7__cxx1112basic_stringIcSt11char_traitsIcESaIcEEES7_ff+0x3a8>
     3ac:	83 c4 10             	add    $0x10,%esp
     3af:	83 ec 04             	sub    $0x4,%esp
     3b2:	8b 86 00 00 00 00    	mov    0x0(%esi),%eax
     3b8:	50                   	push   %eax
     3b9:	8b 86 00 00 00 00    	mov    0x0(%esi),%eax
     3bf:	50                   	push   %eax
     3c0:	57                   	push   %edi
     3c1:	89 f3                	mov    %esi,%ebx
     3c3:	e8 fc ff ff ff       	call   3c4 <_ZN9CharacterC1ERKNSt7__cxx1112basic_stringIcSt11char_traitsIcESaIcEEES7_ff+0x3c4>
     3c8:	83 ec 08             	sub    $0x8,%esp
     3cb:	ff b5 cc fe ff ff    	pushl  -0x134(%ebp)
     3d1:	8d 85 2c ff ff ff    	lea    -0xd4(%ebp),%eax
     3d7:	50                   	push   %eax
     3d8:	e8 fc ff ff ff       	call   3d9 <_ZN9CharacterC1ERKNSt7__cxx1112basic_stringIcSt11char_traitsIcESaIcEEES7_ff+0x3d9>
     3dd:	83 c4 10             	add    $0x10,%esp
     3e0:	8b 95 d4 fe ff ff    	mov    -0x12c(%ebp),%edx
     3e6:	81 c2 a4 00 00 00    	add    $0xa4,%edx
     3ec:	83 ec 08             	sub    $0x8,%esp
     3ef:	50                   	push   %eax
     3f0:	52                   	push   %edx
     3f1:	e8 fc ff ff ff       	call   3f2 <_ZN9CharacterC1ERKNSt7__cxx1112basic_stringIcSt11char_traitsIcESaIcEEES7_ff+0x3f2>
     3f6:	83 c4 10             	add    $0x10,%esp
     3f9:	8b 85 d4 fe ff ff    	mov    -0x12c(%ebp),%eax
     3ff:	83 ec 08             	sub    $0x8,%esp
     402:	ff b5 d0 fe ff ff    	pushl  -0x130(%ebp)
     408:	50                   	push   %eax
     409:	89 f3                	mov    %esi,%ebx
     40b:	e8 fc ff ff ff       	call   40c <_ZN9CharacterC1ERKNSt7__cxx1112basic_stringIcSt11char_traitsIcESaIcEEES7_ff+0x40c>
     410:	83 c4 10             	add    $0x10,%esp
     413:	8b 85 d4 fe ff ff    	mov    -0x12c(%ebp),%eax
     419:	83 c0 18             	add    $0x18,%eax
     41c:	83 ec 08             	sub    $0x8,%esp
     41f:	ff b5 cc fe ff ff    	pushl  -0x134(%ebp)
     425:	50                   	push   %eax
     426:	89 f3                	mov    %esi,%ebx
     428:	e8 fc ff ff ff       	call   429 <_ZN9CharacterC1ERKNSt7__cxx1112basic_stringIcSt11char_traitsIcESaIcEEES7_ff+0x429>
     42d:	83 c4 10             	add    $0x10,%esp
     430:	83 ec 04             	sub    $0x4,%esp
     433:	ff 75 18             	pushl  0x18(%ebp)
     436:	ff 75 14             	pushl  0x14(%ebp)
     439:	8d 85 10 ff ff ff    	lea    -0xf0(%ebp),%eax
     43f:	50                   	push   %eax
     440:	e8 fc ff ff ff       	call   441 <_ZN9CharacterC1ERKNSt7__cxx1112basic_stringIcSt11char_traitsIcESaIcEEES7_ff+0x441>
     445:	83 c4 10             	add    $0x10,%esp
     448:	8b 8d d4 fe ff ff    	mov    -0x12c(%ebp),%ecx
     44e:	8b 85 10 ff ff ff    	mov    -0xf0(%ebp),%eax
     454:	8b 95 14 ff ff ff    	mov    -0xec(%ebp),%edx
     45a:	89 41 30             	mov    %eax,0x30(%ecx)
     45d:	89 51 34             	mov    %edx,0x34(%ecx)
     460:	8b 85 d4 fe ff ff    	mov    -0x12c(%ebp),%eax
     466:	c7 40 38 64 00 00 00 	movl   $0x64,0x38(%eax)
     46d:	8b 85 d4 fe ff ff    	mov    -0x12c(%ebp),%eax
     473:	c7 40 50 64 00 00 00 	movl   $0x64,0x50(%eax)
     47a:	8b 85 d4 fe ff ff    	mov    -0x12c(%ebp),%eax
     480:	c7 40 44 64 00 00 00 	movl   $0x64,0x44(%eax)
     487:	8b 85 d4 fe ff ff    	mov    -0x12c(%ebp),%eax
     48d:	8d b8 a4 00 00 00    	lea    0xa4(%eax),%edi
     493:	83 ec 0c             	sub    $0xc,%esp
     496:	8d 85 10 ff ff ff    	lea    -0xf0(%ebp),%eax
     49c:	50                   	push   %eax
     49d:	89 f3                	mov    %esi,%ebx
     49f:	e8 fc ff ff ff       	call   4a0 <_ZN9CharacterC1ERKNSt7__cxx1112basic_stringIcSt11char_traitsIcESaIcEEES7_ff+0x4a0>
     4a4:	83 c4 10             	add    $0x10,%esp
     4a7:	83 ec 04             	sub    $0x4,%esp
     4aa:	8d 85 10 ff ff ff    	lea    -0xf0(%ebp),%eax
     4b0:	50                   	push   %eax
     4b1:	8d 86 34 00 00 00    	lea    0x34(%esi),%eax
     4b7:	50                   	push   %eax
     4b8:	8d 85 48 ff ff ff    	lea    -0xb8(%ebp),%eax
     4be:	50                   	push   %eax
     4bf:	e8 fc ff ff ff       	call   4c0 <_ZN9CharacterC1ERKNSt7__cxx1112basic_stringIcSt11char_traitsIcESaIcEEES7_ff+0x4c0>
     4c4:	83 c4 10             	add    $0x10,%esp
     4c7:	83 ec 08             	sub    $0x8,%esp
     4ca:	8d 85 48 ff ff ff    	lea    -0xb8(%ebp),%eax
     4d0:	50                   	push   %eax
     4d1:	57                   	push   %edi
     4d2:	e8 fc ff ff ff       	call   4d3 <_ZN9CharacterC1ERKNSt7__cxx1112basic_stringIcSt11char_traitsIcESaIcEEES7_ff+0x4d3>
     4d7:	83 c4 10             	add    $0x10,%esp
     4da:	8b 10                	mov    (%eax),%edx
     4dc:	8b 85 d4 fe ff ff    	mov    -0x12c(%ebp),%eax
     4e2:	89 50 5c             	mov    %edx,0x5c(%eax)
     4e5:	83 ec 0c             	sub    $0xc,%esp
     4e8:	8d 85 48 ff ff ff    	lea    -0xb8(%ebp),%eax
     4ee:	50                   	push   %eax
     4ef:	89 f3                	mov    %esi,%ebx
     4f1:	e8 fc ff ff ff       	call   4f2 <_ZN9CharacterC1ERKNSt7__cxx1112basic_stringIcSt11char_traitsIcESaIcEEES7_ff+0x4f2>
     4f6:	83 c4 10             	add    $0x10,%esp
     4f9:	83 ec 0c             	sub    $0xc,%esp
     4fc:	8d 85 10 ff ff ff    	lea    -0xf0(%ebp),%eax
     502:	50                   	push   %eax
     503:	89 f3                	mov    %esi,%ebx
     505:	e8 fc ff ff ff       	call   506 <_ZN9CharacterC1ERKNSt7__cxx1112basic_stringIcSt11char_traitsIcESaIcEEES7_ff+0x506>
     50a:	83 c4 10             	add    $0x10,%esp
     50d:	8b 85 d4 fe ff ff    	mov    -0x12c(%ebp),%eax
     513:	8d b8 a4 00 00 00    	lea    0xa4(%eax),%edi
     519:	83 ec 0c             	sub    $0xc,%esp
     51c:	8d 85 10 ff ff ff    	lea    -0xf0(%ebp),%eax
     522:	50                   	push   %eax
     523:	89 f3                	mov    %esi,%ebx
     525:	e8 fc ff ff ff       	call   526 <_ZN9CharacterC1ERKNSt7__cxx1112basic_stringIcSt11char_traitsIcESaIcEEES7_ff+0x526>
     52a:	83 c4 10             	add    $0x10,%esp
     52d:	83 ec 04             	sub    $0x4,%esp
     530:	8d 85 10 ff ff ff    	lea    -0xf0(%ebp),%eax
     536:	50                   	push   %eax
     537:	8d 86 3d 00 00 00    	lea    0x3d(%esi),%eax
     53d:	50                   	push   %eax
     53e:	8d 85 48 ff ff ff    	lea    -0xb8(%ebp),%eax
     544:	50                   	push   %eax
     545:	e8 fc ff ff ff       	call   546 <_ZN9CharacterC1ERKNSt7__cxx1112basic_stringIcSt11char_traitsIcESaIcEEES7_ff+0x546>
     54a:	83 c4 10             	add    $0x10,%esp
     54d:	83 ec 08             	sub    $0x8,%esp
     550:	8d 85 48 ff ff ff    	lea    -0xb8(%ebp),%eax
     556:	50                   	push   %eax
     557:	57                   	push   %edi
     558:	e8 fc ff ff ff       	call   559 <_ZN9CharacterC1ERKNSt7__cxx1112basic_stringIcSt11char_traitsIcESaIcEEES7_ff+0x559>
     55d:	83 c4 10             	add    $0x10,%esp
     560:	8b 10                	mov    (%eax),%edx
     562:	8b 85 d4 fe ff ff    	mov    -0x12c(%ebp),%eax
     568:	89 50 60             	mov    %edx,0x60(%eax)
     56b:	83 ec 0c             	sub    $0xc,%esp
     56e:	8d 85 48 ff ff ff    	lea    -0xb8(%ebp),%eax
     574:	50                   	push   %eax
     575:	89 f3                	mov    %esi,%ebx
     577:	e8 fc ff ff ff       	call   578 <_ZN9CharacterC1ERKNSt7__cxx1112basic_stringIcSt11char_traitsIcESaIcEEES7_ff+0x578>
     57c:	83 c4 10             	add    $0x10,%esp
     57f:	83 ec 0c             	sub    $0xc,%esp
     582:	8d 85 10 ff ff ff    	lea    -0xf0(%ebp),%eax
     588:	50                   	push   %eax
     589:	89 f3                	mov    %esi,%ebx
     58b:	e8 fc ff ff ff       	call   58c <_ZN9CharacterC1ERKNSt7__cxx1112basic_stringIcSt11char_traitsIcESaIcEEES7_ff+0x58c>
     590:	83 c4 10             	add    $0x10,%esp
     593:	8b 85 d4 fe ff ff    	mov    -0x12c(%ebp),%eax
     599:	8d b8 a4 00 00 00    	lea    0xa4(%eax),%edi
     59f:	83 ec 0c             	sub    $0xc,%esp
     5a2:	8d 85 10 ff ff ff    	lea    -0xf0(%ebp),%eax
     5a8:	50                   	push   %eax
     5a9:	89 f3                	mov    %esi,%ebx
     5ab:	e8 fc ff ff ff       	call   5ac <_ZN9CharacterC1ERKNSt7__cxx1112basic_stringIcSt11char_traitsIcESaIcEEES7_ff+0x5ac>
     5b0:	83 c4 10             	add    $0x10,%esp
     5b3:	83 ec 04             	sub    $0x4,%esp
     5b6:	8d 85 10 ff ff ff    	lea    -0xf0(%ebp),%eax
     5bc:	50                   	push   %eax
     5bd:	8d 86 47 00 00 00    	lea    0x47(%esi),%eax
     5c3:	50                   	push   %eax
     5c4:	8d 85 48 ff ff ff    	lea    -0xb8(%ebp),%eax
     5ca:	50                   	push   %eax
     5cb:	e8 fc ff ff ff       	call   5cc <_ZN9CharacterC1ERKNSt7__cxx1112basic_stringIcSt11char_traitsIcESaIcEEES7_ff+0x5cc>
     5d0:	83 c4 10             	add    $0x10,%esp
     5d3:	83 ec 08             	sub    $0x8,%esp
     5d6:	8d 85 48 ff ff ff    	lea    -0xb8(%ebp),%eax
     5dc:	50                   	push   %eax
     5dd:	57                   	push   %edi
     5de:	e8 fc ff ff ff       	call   5df <_ZN9CharacterC1ERKNSt7__cxx1112basic_stringIcSt11char_traitsIcESaIcEEES7_ff+0x5df>
     5e3:	83 c4 10             	add    $0x10,%esp
     5e6:	8b 10                	mov    (%eax),%edx
     5e8:	8b 85 d4 fe ff ff    	mov    -0x12c(%ebp),%eax
     5ee:	89 50 64             	mov    %edx,0x64(%eax)
     5f1:	83 ec 0c             	sub    $0xc,%esp
     5f4:	8d 85 48 ff ff ff    	lea    -0xb8(%ebp),%eax
     5fa:	50                   	push   %eax
     5fb:	89 f3                	mov    %esi,%ebx
     5fd:	e8 fc ff ff ff       	call   5fe <_ZN9CharacterC1ERKNSt7__cxx1112basic_stringIcSt11char_traitsIcESaIcEEES7_ff+0x5fe>
     602:	83 c4 10             	add    $0x10,%esp
     605:	83 ec 0c             	sub    $0xc,%esp
     608:	8d 85 10 ff ff ff    	lea    -0xf0(%ebp),%eax
     60e:	50                   	push   %eax
     60f:	89 f3                	mov    %esi,%ebx
     611:	e8 fc ff ff ff       	call   612 <_ZN9CharacterC1ERKNSt7__cxx1112basic_stringIcSt11char_traitsIcESaIcEEES7_ff+0x612>
     616:	83 c4 10             	add    $0x10,%esp
     619:	8b 85 d4 fe ff ff    	mov    -0x12c(%ebp),%eax
     61f:	8d b8 a4 00 00 00    	lea    0xa4(%eax),%edi
     625:	83 ec 0c             	sub    $0xc,%esp
     628:	8d 85 10 ff ff ff    	lea    -0xf0(%ebp),%eax
     62e:	50                   	push   %eax
     62f:	89 f3                	mov    %esi,%ebx
     631:	e8 fc ff ff ff       	call   632 <_ZN9CharacterC1ERKNSt7__cxx1112basic_stringIcSt11char_traitsIcESaIcEEES7_ff+0x632>
     636:	83 c4 10             	add    $0x10,%esp
     639:	83 ec 04             	sub    $0x4,%esp
     63c:	8d 85 10 ff ff ff    	lea    -0xf0(%ebp),%eax
     642:	50                   	push   %eax
     643:	8d 86 51 00 00 00    	lea    0x51(%esi),%eax
     649:	50                   	push   %eax
     64a:	8d 85 48 ff ff ff    	lea    -0xb8(%ebp),%eax
     650:	50                   	push   %eax
     651:	e8 fc ff ff ff       	call   652 <_ZN9CharacterC1ERKNSt7__cxx1112basic_stringIcSt11char_traitsIcESaIcEEES7_ff+0x652>
     656:	83 c4 10             	add    $0x10,%esp
     659:	83 ec 08             	sub    $0x8,%esp
     65c:	8d 85 48 ff ff ff    	lea    -0xb8(%ebp),%eax
     662:	50                   	push   %eax
     663:	57                   	push   %edi
     664:	e8 fc ff ff ff       	call   665 <_ZN9CharacterC1ERKNSt7__cxx1112basic_stringIcSt11char_traitsIcESaIcEEES7_ff+0x665>
     669:	83 c4 10             	add    $0x10,%esp
     66c:	8b 10                	mov    (%eax),%edx
     66e:	8b 85 d4 fe ff ff    	mov    -0x12c(%ebp),%eax
     674:	89 50 68             	mov    %edx,0x68(%eax)
     677:	83 ec 0c             	sub    $0xc,%esp
     67a:	8d 85 48 ff ff ff    	lea    -0xb8(%ebp),%eax
     680:	50                   	push   %eax
     681:	89 f3                	mov    %esi,%ebx
     683:	e8 fc ff ff ff       	call   684 <_ZN9CharacterC1ERKNSt7__cxx1112basic_stringIcSt11char_traitsIcESaIcEEES7_ff+0x684>
     688:	83 c4 10             	add    $0x10,%esp
     68b:	83 ec 0c             	sub    $0xc,%esp
     68e:	8d 85 10 ff ff ff    	lea    -0xf0(%ebp),%eax
     694:	50                   	push   %eax
     695:	89 f3                	mov    %esi,%ebx
     697:	e8 fc ff ff ff       	call   698 <_ZN9CharacterC1ERKNSt7__cxx1112basic_stringIcSt11char_traitsIcESaIcEEES7_ff+0x698>
     69c:	83 c4 10             	add    $0x10,%esp
     69f:	8b 85 d4 fe ff ff    	mov    -0x12c(%ebp),%eax
     6a5:	8d b8 a4 00 00 00    	lea    0xa4(%eax),%edi
     6ab:	83 ec 0c             	sub    $0xc,%esp
     6ae:	8d 85 10 ff ff ff    	lea    -0xf0(%ebp),%eax
     6b4:	50                   	push   %eax
     6b5:	89 f3                	mov    %esi,%ebx
     6b7:	e8 fc ff ff ff       	call   6b8 <_ZN9CharacterC1ERKNSt7__cxx1112basic_stringIcSt11char_traitsIcESaIcEEES7_ff+0x6b8>
     6bc:	83 c4 10             	add    $0x10,%esp
     6bf:	83 ec 04             	sub    $0x4,%esp
     6c2:	8d 85 10 ff ff ff    	lea    -0xf0(%ebp),%eax
     6c8:	50                   	push   %eax
     6c9:	8d 86 5c 00 00 00    	lea    0x5c(%esi),%eax
     6cf:	50                   	push   %eax
     6d0:	8d 85 48 ff ff ff    	lea    -0xb8(%ebp),%eax
     6d6:	50                   	push   %eax
     6d7:	e8 fc ff ff ff       	call   6d8 <_ZN9CharacterC1ERKNSt7__cxx1112basic_stringIcSt11char_traitsIcESaIcEEES7_ff+0x6d8>
     6dc:	83 c4 10             	add    $0x10,%esp
     6df:	83 ec 08             	sub    $0x8,%esp
     6e2:	8d 85 48 ff ff ff    	lea    -0xb8(%ebp),%eax
     6e8:	50                   	push   %eax
     6e9:	57                   	push   %edi
     6ea:	e8 fc ff ff ff       	call   6eb <_ZN9CharacterC1ERKNSt7__cxx1112basic_stringIcSt11char_traitsIcESaIcEEES7_ff+0x6eb>
     6ef:	83 c4 10             	add    $0x10,%esp
     6f2:	8b 10                	mov    (%eax),%edx
     6f4:	8b 85 d4 fe ff ff    	mov    -0x12c(%ebp),%eax
     6fa:	89 50 6c             	mov    %edx,0x6c(%eax)
     6fd:	83 ec 0c             	sub    $0xc,%esp
     700:	8d 85 48 ff ff ff    	lea    -0xb8(%ebp),%eax
     706:	50                   	push   %eax
     707:	89 f3                	mov    %esi,%ebx
     709:	e8 fc ff ff ff       	call   70a <_ZN9CharacterC1ERKNSt7__cxx1112basic_stringIcSt11char_traitsIcESaIcEEES7_ff+0x70a>
     70e:	83 c4 10             	add    $0x10,%esp
     711:	83 ec 0c             	sub    $0xc,%esp
     714:	8d 85 10 ff ff ff    	lea    -0xf0(%ebp),%eax
     71a:	50                   	push   %eax
     71b:	89 f3                	mov    %esi,%ebx
     71d:	e8 fc ff ff ff       	call   71e <_ZN9CharacterC1ERKNSt7__cxx1112basic_stringIcSt11char_traitsIcESaIcEEES7_ff+0x71e>
     722:	83 c4 10             	add    $0x10,%esp
     725:	8b 85 d4 fe ff ff    	mov    -0x12c(%ebp),%eax
     72b:	8d b8 a4 00 00 00    	lea    0xa4(%eax),%edi
     731:	83 ec 0c             	sub    $0xc,%esp
     734:	8d 85 10 ff ff ff    	lea    -0xf0(%ebp),%eax
     73a:	50                   	push   %eax
     73b:	89 f3                	mov    %esi,%ebx
     73d:	e8 fc ff ff ff       	call   73e <_ZN9CharacterC1ERKNSt7__cxx1112basic_stringIcSt11char_traitsIcESaIcEEES7_ff+0x73e>
     742:	83 c4 10             	add    $0x10,%esp
     745:	83 ec 04             	sub    $0x4,%esp
     748:	8d 85 10 ff ff ff    	lea    -0xf0(%ebp),%eax
     74e:	50                   	push   %eax
     74f:	8d 86 61 00 00 00    	lea    0x61(%esi),%eax
     755:	50                   	push   %eax
     756:	8d 85 48 ff ff ff    	lea    -0xb8(%ebp),%eax
     75c:	50                   	push   %eax
     75d:	e8 fc ff ff ff       	call   75e <_ZN9CharacterC1ERKNSt7__cxx1112basic_stringIcSt11char_traitsIcESaIcEEES7_ff+0x75e>
     762:	83 c4 10             	add    $0x10,%esp
     765:	83 ec 08             	sub    $0x8,%esp
     768:	8d 85 48 ff ff ff    	lea    -0xb8(%ebp),%eax
     76e:	50                   	push   %eax
     76f:	57                   	push   %edi
     770:	e8 fc ff ff ff       	call   771 <_ZN9CharacterC1ERKNSt7__cxx1112basic_stringIcSt11char_traitsIcESaIcEEES7_ff+0x771>
     775:	83 c4 10             	add    $0x10,%esp
     778:	8b 10                	mov    (%eax),%edx
     77a:	8b 85 d4 fe ff ff    	mov    -0x12c(%ebp),%eax
     780:	89 50 70             	mov    %edx,0x70(%eax)
     783:	83 ec 0c             	sub    $0xc,%esp
     786:	8d 85 48 ff ff ff    	lea    -0xb8(%ebp),%eax
     78c:	50                   	push   %eax
     78d:	89 f3                	mov    %esi,%ebx
     78f:	e8 fc ff ff ff       	call   790 <_ZN9CharacterC1ERKNSt7__cxx1112basic_stringIcSt11char_traitsIcESaIcEEES7_ff+0x790>
     794:	83 c4 10             	add    $0x10,%esp
     797:	83 ec 0c             	sub    $0xc,%esp
     79a:	8d 85 10 ff ff ff    	lea    -0xf0(%ebp),%eax
     7a0:	50                   	push   %eax
     7a1:	89 f3                	mov    %esi,%ebx
     7a3:	e8 fc ff ff ff       	call   7a4 <_ZN9CharacterC1ERKNSt7__cxx1112basic_stringIcSt11char_traitsIcESaIcEEES7_ff+0x7a4>
     7a8:	83 c4 10             	add    $0x10,%esp
     7ab:	8b 85 d4 fe ff ff    	mov    -0x12c(%ebp),%eax
     7b1:	8d b8 a4 00 00 00    	lea    0xa4(%eax),%edi
     7b7:	83 ec 0c             	sub    $0xc,%esp
     7ba:	8d 85 10 ff ff ff    	lea    -0xf0(%ebp),%eax
     7c0:	50                   	push   %eax
     7c1:	89 f3                	mov    %esi,%ebx
     7c3:	e8 fc ff ff ff       	call   7c4 <_ZN9CharacterC1ERKNSt7__cxx1112basic_stringIcSt11char_traitsIcESaIcEEES7_ff+0x7c4>
     7c8:	83 c4 10             	add    $0x10,%esp
     7cb:	83 ec 04             	sub    $0x4,%esp
     7ce:	8d 85 10 ff ff ff    	lea    -0xf0(%ebp),%eax
     7d4:	50                   	push   %eax
     7d5:	8d 86 6e 00 00 00    	lea    0x6e(%esi),%eax
     7db:	50                   	push   %eax
     7dc:	8d 85 48 ff ff ff    	lea    -0xb8(%ebp),%eax
     7e2:	50                   	push   %eax
     7e3:	e8 fc ff ff ff       	call   7e4 <_ZN9CharacterC1ERKNSt7__cxx1112basic_stringIcSt11char_traitsIcESaIcEEES7_ff+0x7e4>
     7e8:	83 c4 10             	add    $0x10,%esp
     7eb:	83 ec 08             	sub    $0x8,%esp
     7ee:	8d 85 48 ff ff ff    	lea    -0xb8(%ebp),%eax
     7f4:	50                   	push   %eax
     7f5:	57                   	push   %edi
     7f6:	e8 fc ff ff ff       	call   7f7 <_ZN9CharacterC1ERKNSt7__cxx1112basic_stringIcSt11char_traitsIcESaIcEEES7_ff+0x7f7>
     7fb:	83 c4 10             	add    $0x10,%esp
     7fe:	8b 10                	mov    (%eax),%edx
     800:	8b 85 d4 fe ff ff    	mov    -0x12c(%ebp),%eax
     806:	89 50 74             	mov    %edx,0x74(%eax)
     809:	83 ec 0c             	sub    $0xc,%esp
     80c:	8d 85 48 ff ff ff    	lea    -0xb8(%ebp),%eax
     812:	50                   	push   %eax
     813:	89 f3                	mov    %esi,%ebx
     815:	e8 fc ff ff ff       	call   816 <_ZN9CharacterC1ERKNSt7__cxx1112basic_stringIcSt11char_traitsIcESaIcEEES7_ff+0x816>
     81a:	83 c4 10             	add    $0x10,%esp
     81d:	83 ec 0c             	sub    $0xc,%esp
     820:	8d 85 10 ff ff ff    	lea    -0xf0(%ebp),%eax
     826:	50                   	push   %eax
     827:	89 f3                	mov    %esi,%ebx
     829:	e8 fc ff ff ff       	call   82a <_ZN9CharacterC1ERKNSt7__cxx1112basic_stringIcSt11char_traitsIcESaIcEEES7_ff+0x82a>
     82e:	83 c4 10             	add    $0x10,%esp
     831:	8b 85 d4 fe ff ff    	mov    -0x12c(%ebp),%eax
     837:	8d b8 a4 00 00 00    	lea    0xa4(%eax),%edi
     83d:	83 ec 0c             	sub    $0xc,%esp
     840:	8d 85 10 ff ff ff    	lea    -0xf0(%ebp),%eax
     846:	50                   	push   %eax
     847:	89 f3                	mov    %esi,%ebx
     849:	e8 fc ff ff ff       	call   84a <_ZN9CharacterC1ERKNSt7__cxx1112basic_stringIcSt11char_traitsIcESaIcEEES7_ff+0x84a>
     84e:	83 c4 10             	add    $0x10,%esp
     851:	83 ec 04             	sub    $0x4,%esp
     854:	8d 85 10 ff ff ff    	lea    -0xf0(%ebp),%eax
     85a:	50                   	push   %eax
     85b:	8d 86 74 00 00 00    	lea    0x74(%esi),%eax
     861:	50                   	push   %eax
     862:	8d 85 48 ff ff ff    	lea    -0xb8(%ebp),%eax
     868:	50                   	push   %eax
     869:	e8 fc ff ff ff       	call   86a <_ZN9CharacterC1ERKNSt7__cxx1112basic_stringIcSt11char_traitsIcESaIcEEES7_ff+0x86a>
     86e:	83 c4 10             	add    $0x10,%esp
     871:	83 ec 08             	sub    $0x8,%esp
     874:	8d 85 48 ff ff ff    	lea    -0xb8(%ebp),%eax
     87a:	50                   	push   %eax
     87b:	57                   	push   %edi
     87c:	e8 fc ff ff ff       	call   87d <_ZN9CharacterC1ERKNSt7__cxx1112basic_stringIcSt11char_traitsIcESaIcEEES7_ff+0x87d>
     881:	83 c4 10             	add    $0x10,%esp
     884:	8b 10                	mov    (%eax),%edx
     886:	8b 85 d4 fe ff ff    	mov    -0x12c(%ebp),%eax
     88c:	89 50 78             	mov    %edx,0x78(%eax)
     88f:	83 ec 0c             	sub    $0xc,%esp
     892:	8d 85 48 ff ff ff    	lea    -0xb8(%ebp),%eax
     898:	50                   	push   %eax
     899:	89 f3                	mov    %esi,%ebx
     89b:	e8 fc ff ff ff       	call   89c <_ZN9CharacterC1ERKNSt7__cxx1112basic_stringIcSt11char_traitsIcESaIcEEES7_ff+0x89c>
     8a0:	83 c4 10             	add    $0x10,%esp
     8a3:	83 ec 0c             	sub    $0xc,%esp
     8a6:	8d 85 10 ff ff ff    	lea    -0xf0(%ebp),%eax
     8ac:	50                   	push   %eax
     8ad:	89 f3                	mov    %esi,%ebx
     8af:	e8 fc ff ff ff       	call   8b0 <_ZN9CharacterC1ERKNSt7__cxx1112basic_stringIcSt11char_traitsIcESaIcEEES7_ff+0x8b0>
     8b4:	83 c4 10             	add    $0x10,%esp
     8b7:	8b 85 d4 fe ff ff    	mov    -0x12c(%ebp),%eax
     8bd:	8d b8 a4 00 00 00    	lea    0xa4(%eax),%edi
     8c3:	83 ec 0c             	sub    $0xc,%esp
     8c6:	8d 85 10 ff ff ff    	lea    -0xf0(%ebp),%eax
     8cc:	50                   	push   %eax
     8cd:	89 f3                	mov    %esi,%ebx
     8cf:	e8 fc ff ff ff       	call   8d0 <_ZN9CharacterC1ERKNSt7__cxx1112basic_stringIcSt11char_traitsIcESaIcEEES7_ff+0x8d0>
     8d4:	83 c4 10             	add    $0x10,%esp
     8d7:	83 ec 04             	sub    $0x4,%esp
     8da:	8d 85 10 ff ff ff    	lea    -0xf0(%ebp),%eax
     8e0:	50                   	push   %eax
     8e1:	8d 86 79 00 00 00    	lea    0x79(%esi),%eax
     8e7:	50                   	push   %eax
     8e8:	8d 85 48 ff ff ff    	lea    -0xb8(%ebp),%eax
     8ee:	50                   	push   %eax
     8ef:	e8 fc ff ff ff       	call   8f0 <_ZN9CharacterC1ERKNSt7__cxx1112basic_stringIcSt11char_traitsIcESaIcEEES7_ff+0x8f0>
     8f4:	83 c4 10             	add    $0x10,%esp
     8f7:	83 ec 08             	sub    $0x8,%esp
     8fa:	8d 85 48 ff ff ff    	lea    -0xb8(%ebp),%eax
     900:	50                   	push   %eax
     901:	57                   	push   %edi
     902:	e8 fc ff ff ff       	call   903 <_ZN9CharacterC1ERKNSt7__cxx1112basic_stringIcSt11char_traitsIcESaIcEEES7_ff+0x903>
     907:	83 c4 10             	add    $0x10,%esp
     90a:	8b 10                	mov    (%eax),%edx
     90c:	8b 85 d4 fe ff ff    	mov    -0x12c(%ebp),%eax
     912:	89 50 7c             	mov    %edx,0x7c(%eax)
     915:	83 ec 0c             	sub    $0xc,%esp
     918:	8d 85 48 ff ff ff    	lea    -0xb8(%ebp),%eax
     91e:	50                   	push   %eax
     91f:	89 f3                	mov    %esi,%ebx
     921:	e8 fc ff ff ff       	call   922 <_ZN9CharacterC1ERKNSt7__cxx1112basic_stringIcSt11char_traitsIcESaIcEEES7_ff+0x922>
     926:	83 c4 10             	add    $0x10,%esp
     929:	83 ec 0c             	sub    $0xc,%esp
     92c:	8d 85 10 ff ff ff    	lea    -0xf0(%ebp),%eax
     932:	50                   	push   %eax
     933:	89 f3                	mov    %esi,%ebx
     935:	e8 fc ff ff ff       	call   936 <_ZN9CharacterC1ERKNSt7__cxx1112basic_stringIcSt11char_traitsIcESaIcEEES7_ff+0x936>
     93a:	83 c4 10             	add    $0x10,%esp
     93d:	8b 85 d4 fe ff ff    	mov    -0x12c(%ebp),%eax
     943:	8d b8 a4 00 00 00    	lea    0xa4(%eax),%edi
     949:	83 ec 0c             	sub    $0xc,%esp
     94c:	8d 85 10 ff ff ff    	lea    -0xf0(%ebp),%eax
     952:	50                   	push   %eax
     953:	89 f3                	mov    %esi,%ebx
     955:	e8 fc ff ff ff       	call   956 <_ZN9CharacterC1ERKNSt7__cxx1112basic_stringIcSt11char_traitsIcESaIcEEES7_ff+0x956>
     95a:	83 c4 10             	add    $0x10,%esp
     95d:	83 ec 04             	sub    $0x4,%esp
     960:	8d 85 10 ff ff ff    	lea    -0xf0(%ebp),%eax
     966:	50                   	push   %eax
     967:	8d 86 7f 00 00 00    	lea    0x7f(%esi),%eax
     96d:	50                   	push   %eax
     96e:	8d 85 48 ff ff ff    	lea    -0xb8(%ebp),%eax
     974:	50                   	push   %eax
     975:	e8 fc ff ff ff       	call   976 <_ZN9CharacterC1ERKNSt7__cxx1112basic_stringIcSt11char_traitsIcESaIcEEES7_ff+0x976>
     97a:	83 c4 10             	add    $0x10,%esp
     97d:	83 ec 08             	sub    $0x8,%esp
     980:	8d 85 48 ff ff ff    	lea    -0xb8(%ebp),%eax
     986:	50                   	push   %eax
     987:	57                   	push   %edi
     988:	e8 fc ff ff ff       	call   989 <_ZN9CharacterC1ERKNSt7__cxx1112basic_stringIcSt11char_traitsIcESaIcEEES7_ff+0x989>
     98d:	83 c4 10             	add    $0x10,%esp
     990:	8b 10                	mov    (%eax),%edx
     992:	8b 85 d4 fe ff ff    	mov    -0x12c(%ebp),%eax
     998:	89 90 80 00 00 00    	mov    %edx,0x80(%eax)
     99e:	83 ec 0c             	sub    $0xc,%esp
     9a1:	8d 85 48 ff ff ff    	lea    -0xb8(%ebp),%eax
     9a7:	50                   	push   %eax
     9a8:	89 f3                	mov    %esi,%ebx
     9aa:	e8 fc ff ff ff       	call   9ab <_ZN9CharacterC1ERKNSt7__cxx1112basic_stringIcSt11char_traitsIcESaIcEEES7_ff+0x9ab>
     9af:	83 c4 10             	add    $0x10,%esp
     9b2:	83 ec 0c             	sub    $0xc,%esp
     9b5:	8d 85 10 ff ff ff    	lea    -0xf0(%ebp),%eax
     9bb:	50                   	push   %eax
     9bc:	89 f3                	mov    %esi,%ebx
     9be:	e8 fc ff ff ff       	call   9bf <_ZN9CharacterC1ERKNSt7__cxx1112basic_stringIcSt11char_traitsIcESaIcEEES7_ff+0x9bf>
     9c3:	83 c4 10             	add    $0x10,%esp
     9c6:	8b 85 d4 fe ff ff    	mov    -0x12c(%ebp),%eax
     9cc:	8b 50 38             	mov    0x38(%eax),%edx
     9cf:	8b 85 d4 fe ff ff    	mov    -0x12c(%ebp),%eax
     9d5:	8b 40 5c             	mov    0x5c(%eax),%eax
     9d8:	89 85 c0 fe ff ff    	mov    %eax,-0x140(%ebp)
     9de:	db 85 c0 fe ff ff    	fildl  -0x140(%ebp)
     9e4:	d9 86 58 02 00 00    	flds   0x258(%esi)
     9ea:	de c9                	fmulp  %st,%st(1)
     9ec:	d9 bd ca fe ff ff    	fnstcw -0x136(%ebp)
     9f2:	0f b7 85 ca fe ff ff 	movzwl -0x136(%ebp),%eax
     9f9:	80 cc 0c             	or     $0xc,%ah
     9fc:	66 89 85 c8 fe ff ff 	mov    %ax,-0x138(%ebp)
     a03:	d9 ad c8 fe ff ff    	fldcw  -0x138(%ebp)
     a09:	db 9d c0 fe ff ff    	fistpl -0x140(%ebp)
     a0f:	d9 ad ca fe ff ff    	fldcw  -0x136(%ebp)
     a15:	03 95 c0 fe ff ff    	add    -0x140(%ebp),%edx
     a1b:	8b 85 d4 fe ff ff    	mov    -0x12c(%ebp),%eax
     a21:	89 50 3c             	mov    %edx,0x3c(%eax)
     a24:	8b 85 d4 fe ff ff    	mov    -0x12c(%ebp),%eax
     a2a:	8b 50 3c             	mov    0x3c(%eax),%edx
     a2d:	8b 85 d4 fe ff ff    	mov    -0x12c(%ebp),%eax
     a33:	89 50 40             	mov    %edx,0x40(%eax)
     a36:	8b 85 d4 fe ff ff    	mov    -0x12c(%ebp),%eax
     a3c:	8b 50 44             	mov    0x44(%eax),%edx
     a3f:	8b 85 d4 fe ff ff    	mov    -0x12c(%ebp),%eax
     a45:	8b 40 64             	mov    0x64(%eax),%eax
     a48:	89 85 c0 fe ff ff    	mov    %eax,-0x140(%ebp)
     a4e:	db 85 c0 fe ff ff    	fildl  -0x140(%ebp)
     a54:	d9 86 58 02 00 00    	flds   0x258(%esi)
     a5a:	de c9                	fmulp  %st,%st(1)
     a5c:	d9 ad c8 fe ff ff    	fldcw  -0x138(%ebp)
     a62:	db 9d c0 fe ff ff    	fistpl -0x140(%ebp)
     a68:	d9 ad ca fe ff ff    	fldcw  -0x136(%ebp)
     a6e:	03 95 c0 fe ff ff    	add    -0x140(%ebp),%edx
     a74:	8b 85 d4 fe ff ff    	mov    -0x12c(%ebp),%eax
     a7a:	89 50 48             	mov    %edx,0x48(%eax)
     a7d:	8b 85 d4 fe ff ff    	mov    -0x12c(%ebp),%eax
     a83:	8b 50 48             	mov    0x48(%eax),%edx
     a86:	8b 85 d4 fe ff ff    	mov    -0x12c(%ebp),%eax
     a8c:	89 50 4c             	mov    %edx,0x4c(%eax)
     a8f:	8b 85 d4 fe ff ff    	mov    -0x12c(%ebp),%eax
     a95:	8b 50 50             	mov    0x50(%eax),%edx
     a98:	8b 85 d4 fe ff ff    	mov    -0x12c(%ebp),%eax
     a9e:	8b 40 70             	mov    0x70(%eax),%eax
     aa1:	89 85 c0 fe ff ff    	mov    %eax,-0x140(%ebp)
     aa7:	db 85 c0 fe ff ff    	fildl  -0x140(%ebp)
     aad:	d9 86 5c 02 00 00    	flds   0x25c(%esi)
     ab3:	de c9                	fmulp  %st,%st(1)
     ab5:	d9 ad c8 fe ff ff    	fldcw  -0x138(%ebp)
     abb:	db 9d c0 fe ff ff    	fistpl -0x140(%ebp)
     ac1:	d9 ad ca fe ff ff    	fldcw  -0x136(%ebp)
     ac7:	03 95 c0 fe ff ff    	add    -0x140(%ebp),%edx
     acd:	8b 85 d4 fe ff ff    	mov    -0x12c(%ebp),%eax
     ad3:	89 50 54             	mov    %edx,0x54(%eax)
     ad6:	8b 85 d4 fe ff ff    	mov    -0x12c(%ebp),%eax
     adc:	8b 50 54             	mov    0x54(%eax),%edx
     adf:	8b 85 d4 fe ff ff    	mov    -0x12c(%ebp),%eax
     ae5:	89 50 58             	mov    %edx,0x58(%eax)
     ae8:	8b 85 d4 fe ff ff    	mov    -0x12c(%ebp),%eax
     aee:	c7 80 94 00 00 00 01 	movl   $0x1,0x94(%eax)
     af5:	00 00 00 
     af8:	8b 85 d4 fe ff ff    	mov    -0x12c(%ebp),%eax
     afe:	8b 90 94 00 00 00    	mov    0x94(%eax),%edx
     b04:	8b 85 d4 fe ff ff    	mov    -0x12c(%ebp),%eax
     b0a:	8b 40 5c             	mov    0x5c(%eax),%eax
     b0d:	01 c0                	add    %eax,%eax
     b0f:	01 c2                	add    %eax,%edx
     b11:	8b 85 d4 fe ff ff    	mov    -0x12c(%ebp),%eax
     b17:	8b 40 60             	mov    0x60(%eax),%eax
     b1a:	01 c2                	add    %eax,%edx
     b1c:	8b 85 d4 fe ff ff    	mov    -0x12c(%ebp),%eax
     b22:	89 90 98 00 00 00    	mov    %edx,0x98(%eax)
     b28:	8b 85 d4 fe ff ff    	mov    -0x12c(%ebp),%eax
     b2e:	c7 80 9c 00 00 00 01 	movl   $0x1,0x9c(%eax)
     b35:	00 00 00 
     b38:	8b 85 d4 fe ff ff    	mov    -0x12c(%ebp),%eax
     b3e:	8b 90 9c 00 00 00    	mov    0x9c(%eax),%edx
     b44:	8b 85 d4 fe ff ff    	mov    -0x12c(%ebp),%eax
     b4a:	8b 40 5c             	mov    0x5c(%eax),%eax
     b4d:	01 c2                	add    %eax,%edx
     b4f:	8b 85 d4 fe ff ff    	mov    -0x12c(%ebp),%eax
     b55:	8b 40 60             	mov    0x60(%eax),%eax
     b58:	01 c2                	add    %eax,%edx
     b5a:	8b 85 d4 fe ff ff    	mov    -0x12c(%ebp),%eax
     b60:	89 90 a0 00 00 00    	mov    %edx,0xa0(%eax)
     b66:	8d 86 00 00 00 00    	lea    0x0(%esi),%eax
     b6c:	89 85 e4 fe ff ff    	mov    %eax,-0x11c(%ebp)
     b72:	8d 85 f4 fe ff ff    	lea    -0x10c(%ebp),%eax
     b78:	83 ec 08             	sub    $0x8,%esp
     b7b:	ff b5 e4 fe ff ff    	pushl  -0x11c(%ebp)
     b81:	50                   	push   %eax
     b82:	e8 fc ff ff ff       	call   b83 <_ZN9CharacterC1ERKNSt7__cxx1112basic_stringIcSt11char_traitsIcESaIcEEES7_ff+0xb83>
     b87:	83 c4 0c             	add    $0xc,%esp
     b8a:	8d 85 10 ff ff ff    	lea    -0xf0(%ebp),%eax
     b90:	83 ec 08             	sub    $0x8,%esp
     b93:	ff b5 e4 fe ff ff    	pushl  -0x11c(%ebp)
     b99:	50                   	push   %eax
     b9a:	e8 fc ff ff ff       	call   b9b <_ZN9CharacterC1ERKNSt7__cxx1112basic_stringIcSt11char_traitsIcESaIcEEES7_ff+0xb9b>
     b9f:	83 c4 0c             	add    $0xc,%esp
     ba2:	83 ec 08             	sub    $0x8,%esp
     ba5:	8d 85 10 ff ff ff    	lea    -0xf0(%ebp),%eax
     bab:	50                   	push   %eax
     bac:	8d 85 f4 fe ff ff    	lea    -0x10c(%ebp),%eax
     bb2:	50                   	push   %eax
     bb3:	e8 fc ff ff ff       	call   bb4 <_ZN9CharacterC1ERKNSt7__cxx1112basic_stringIcSt11char_traitsIcESaIcEEES7_ff+0xbb4>
     bb8:	83 c4 10             	add    $0x10,%esp
     bbb:	84 c0                	test   %al,%al
     bbd:	74 4f                	je     c0e <_ZN9CharacterC1ERKNSt7__cxx1112basic_stringIcSt11char_traitsIcESaIcEEES7_ff+0xc0e>
     bbf:	83 ec 0c             	sub    $0xc,%esp
     bc2:	8d 85 f4 fe ff ff    	lea    -0x10c(%ebp),%eax
     bc8:	50                   	push   %eax
     bc9:	e8 fc ff ff ff       	call   bca <_ZN9CharacterC1ERKNSt7__cxx1112basic_stringIcSt11char_traitsIcESaIcEEES7_ff+0xbca>
     bce:	83 c4 10             	add    $0x10,%esp
     bd1:	89 85 f0 fe ff ff    	mov    %eax,-0x110(%ebp)
     bd7:	8b 85 d4 fe ff ff    	mov    -0x12c(%ebp),%eax
     bdd:	05 c0 00 00 00       	add    $0xc0,%eax
     be2:	83 ec 08             	sub    $0x8,%esp
     be5:	ff b5 f0 fe ff ff    	pushl  -0x110(%ebp)
     beb:	50                   	push   %eax
     bec:	e8 fc ff ff ff       	call   bed <_ZN9CharacterC1ERKNSt7__cxx1112basic_stringIcSt11char_traitsIcESaIcEEES7_ff+0xbed>
     bf1:	83 c4 10             	add    $0x10,%esp
     bf4:	c7 00 00 00 00 00    	movl   $0x0,(%eax)
     bfa:	83 ec 0c             	sub    $0xc,%esp
     bfd:	8d 85 f4 fe ff ff    	lea    -0x10c(%ebp),%eax
     c03:	50                   	push   %eax
     c04:	e8 fc ff ff ff       	call   c05 <_ZN9CharacterC1ERKNSt7__cxx1112basic_stringIcSt11char_traitsIcESaIcEEES7_ff+0xc05>
     c09:	83 c4 10             	add    $0x10,%esp
     c0c:	eb 94                	jmp    ba2 <_ZN9CharacterC1ERKNSt7__cxx1112basic_stringIcSt11char_traitsIcESaIcEEES7_ff+0xba2>
     c0e:	8d 86 00 00 00 00    	lea    0x0(%esi),%eax
     c14:	89 85 e8 fe ff ff    	mov    %eax,-0x118(%ebp)
     c1a:	8d 85 f4 fe ff ff    	lea    -0x10c(%ebp),%eax
     c20:	83 ec 08             	sub    $0x8,%esp
     c23:	ff b5 e8 fe ff ff    	pushl  -0x118(%ebp)
     c29:	50                   	push   %eax
     c2a:	e8 fc ff ff ff       	call   c2b <_ZN9CharacterC1ERKNSt7__cxx1112basic_stringIcSt11char_traitsIcESaIcEEES7_ff+0xc2b>
     c2f:	83 c4 0c             	add    $0xc,%esp
     c32:	8d 85 10 ff ff ff    	lea    -0xf0(%ebp),%eax
     c38:	83 ec 08             	sub    $0x8,%esp
     c3b:	ff b5 e8 fe ff ff    	pushl  -0x118(%ebp)
     c41:	50                   	push   %eax
     c42:	e8 fc ff ff ff       	call   c43 <_ZN9CharacterC1ERKNSt7__cxx1112basic_stringIcSt11char_traitsIcESaIcEEES7_ff+0xc43>
     c47:	83 c4 0c             	add    $0xc,%esp
     c4a:	83 ec 08             	sub    $0x8,%esp
     c4d:	8d 85 10 ff ff ff    	lea    -0xf0(%ebp),%eax
     c53:	50                   	push   %eax
     c54:	8d 85 f4 fe ff ff    	lea    -0x10c(%ebp),%eax
     c5a:	50                   	push   %eax
     c5b:	e8 fc ff ff ff       	call   c5c <_ZN9CharacterC1ERKNSt7__cxx1112basic_stringIcSt11char_traitsIcESaIcEEES7_ff+0xc5c>
     c60:	83 c4 10             	add    $0x10,%esp
     c63:	84 c0                	test   %al,%al
     c65:	74 4f                	je     cb6 <_ZN9CharacterC1ERKNSt7__cxx1112basic_stringIcSt11char_traitsIcESaIcEEES7_ff+0xcb6>
     c67:	83 ec 0c             	sub    $0xc,%esp
     c6a:	8d 85 f4 fe ff ff    	lea    -0x10c(%ebp),%eax
     c70:	50                   	push   %eax
     c71:	e8 fc ff ff ff       	call   c72 <_ZN9CharacterC1ERKNSt7__cxx1112basic_stringIcSt11char_traitsIcESaIcEEES7_ff+0xc72>
     c76:	83 c4 10             	add    $0x10,%esp
     c79:	89 85 ec fe ff ff    	mov    %eax,-0x114(%ebp)
     c7f:	8b 85 d4 fe ff ff    	mov    -0x12c(%ebp),%eax
     c85:	05 dc 00 00 00       	add    $0xdc,%eax
     c8a:	83 ec 08             	sub    $0x8,%esp
     c8d:	ff b5 ec fe ff ff    	pushl  -0x114(%ebp)
     c93:	50                   	push   %eax
     c94:	e8 fc ff ff ff       	call   c95 <_ZN9CharacterC1ERKNSt7__cxx1112basic_stringIcSt11char_traitsIcESaIcEEES7_ff+0xc95>
     c99:	83 c4 10             	add    $0x10,%esp
     c9c:	c7 00 00 00 00 00    	movl   $0x0,(%eax)
     ca2:	83 ec 0c             	sub    $0xc,%esp
     ca5:	8d 85 f4 fe ff ff    	lea    -0x10c(%ebp),%eax
     cab:	50                   	push   %eax
     cac:	e8 fc ff ff ff       	call   cad <_ZN9CharacterC1ERKNSt7__cxx1112basic_stringIcSt11char_traitsIcESaIcEEES7_ff+0xcad>
     cb1:	83 c4 10             	add    $0x10,%esp
     cb4:	eb 94                	jmp    c4a <_ZN9CharacterC1ERKNSt7__cxx1112basic_stringIcSt11char_traitsIcESaIcEEES7_ff+0xc4a>
     cb6:	83 ec 0c             	sub    $0xc,%esp
     cb9:	8d 85 2c ff ff ff    	lea    -0xd4(%ebp),%eax
     cbf:	50                   	push   %eax
     cc0:	e8 fc ff ff ff       	call   cc1 <_ZN9CharacterC1ERKNSt7__cxx1112basic_stringIcSt11char_traitsIcESaIcEEES7_ff+0xcc1>
     cc5:	83 c4 10             	add    $0x10,%esp
     cc8:	90                   	nop
     cc9:	8b 45 e4             	mov    -0x1c(%ebp),%eax
     ccc:	65 2b 05 14 00 00 00 	sub    %gs:0x14,%eax
     cd3:	0f 84 d3 03 00 00    	je     10ac <_ZN9CharacterC1ERKNSt7__cxx1112basic_stringIcSt11char_traitsIcESaIcEEES7_ff+0x10ac>
     cd9:	e9 c9 03 00 00       	jmp    10a7 <_ZN9CharacterC1ERKNSt7__cxx1112basic_stringIcSt11char_traitsIcESaIcEEES7_ff+0x10a7>
     cde:	89 c3                	mov    %eax,%ebx
     ce0:	83 ec 0c             	sub    $0xc,%esp
     ce3:	8d 85 e3 fe ff ff    	lea    -0x11d(%ebp),%eax
     ce9:	50                   	push   %eax
     cea:	e8 fc ff ff ff       	call   ceb <_ZN9CharacterC1ERKNSt7__cxx1112basic_stringIcSt11char_traitsIcESaIcEEES7_ff+0xceb>
     cef:	83 c4 10             	add    $0x10,%esp
     cf2:	89 df                	mov    %ebx,%edi
     cf4:	8d 9d 48 ff ff ff    	lea    -0xb8(%ebp),%ebx
     cfa:	81 c3 9c 00 00 00    	add    $0x9c,%ebx
     d00:	8d 85 48 ff ff ff    	lea    -0xb8(%ebp),%eax
     d06:	39 c3                	cmp    %eax,%ebx
     d08:	74 11                	je     d1b <_ZN9CharacterC1ERKNSt7__cxx1112basic_stringIcSt11char_traitsIcESaIcEEES7_ff+0xd1b>
     d0a:	83 eb 34             	sub    $0x34,%ebx
     d0d:	83 ec 0c             	sub    $0xc,%esp
     d10:	53                   	push   %ebx
     d11:	e8 fc ff ff ff       	call   d12 <_ZN9CharacterC1ERKNSt7__cxx1112basic_stringIcSt11char_traitsIcESaIcEEES7_ff+0xd12>
     d16:	83 c4 10             	add    $0x10,%esp
     d19:	eb e5                	jmp    d00 <_ZN9CharacterC1ERKNSt7__cxx1112basic_stringIcSt11char_traitsIcESaIcEEES7_ff+0xd00>
     d1b:	89 fb                	mov    %edi,%ebx
     d1d:	eb 02                	jmp    d21 <_ZN9CharacterC1ERKNSt7__cxx1112basic_stringIcSt11char_traitsIcESaIcEEES7_ff+0xd21>
     d1f:	89 c3                	mov    %eax,%ebx
     d21:	83 ec 0c             	sub    $0xc,%esp
     d24:	8d 85 2c ff ff ff    	lea    -0xd4(%ebp),%eax
     d2a:	50                   	push   %eax
     d2b:	e8 fc ff ff ff       	call   d2c <_ZN9CharacterC1ERKNSt7__cxx1112basic_stringIcSt11char_traitsIcESaIcEEES7_ff+0xd2c>
     d30:	83 c4 10             	add    $0x10,%esp
     d33:	eb 02                	jmp    d37 <_ZN9CharacterC1ERKNSt7__cxx1112basic_stringIcSt11char_traitsIcESaIcEEES7_ff+0xd37>
     d35:	89 c3                	mov    %eax,%ebx
     d37:	83 ec 0c             	sub    $0xc,%esp
     d3a:	8d 85 10 ff ff ff    	lea    -0xf0(%ebp),%eax
     d40:	50                   	push   %eax
     d41:	e8 fc ff ff ff       	call   d42 <_ZN9CharacterC1ERKNSt7__cxx1112basic_stringIcSt11char_traitsIcESaIcEEES7_ff+0xd42>
     d46:	83 c4 10             	add    $0x10,%esp
     d49:	eb 02                	jmp    d4d <_ZN9CharacterC1ERKNSt7__cxx1112basic_stringIcSt11char_traitsIcESaIcEEES7_ff+0xd4d>
     d4b:	89 c3                	mov    %eax,%ebx
     d4d:	83 ec 0c             	sub    $0xc,%esp
     d50:	8d 85 f4 fe ff ff    	lea    -0x10c(%ebp),%eax
     d56:	50                   	push   %eax
     d57:	e8 fc ff ff ff       	call   d58 <_ZN9CharacterC1ERKNSt7__cxx1112basic_stringIcSt11char_traitsIcESaIcEEES7_ff+0xd58>
     d5c:	83 c4 10             	add    $0x10,%esp
     d5f:	e9 c4 02 00 00       	jmp    1028 <_ZN9CharacterC1ERKNSt7__cxx1112basic_stringIcSt11char_traitsIcESaIcEEES7_ff+0x1028>
     d64:	89 85 c0 fe ff ff    	mov    %eax,-0x140(%ebp)
     d6a:	83 ec 0c             	sub    $0xc,%esp
     d6d:	8d 85 48 ff ff ff    	lea    -0xb8(%ebp),%eax
     d73:	50                   	push   %eax
     d74:	89 f3                	mov    %esi,%ebx
     d76:	e8 fc ff ff ff       	call   d77 <_ZN9CharacterC1ERKNSt7__cxx1112basic_stringIcSt11char_traitsIcESaIcEEES7_ff+0xd77>
     d7b:	83 c4 10             	add    $0x10,%esp
     d7e:	8b 85 c0 fe ff ff    	mov    -0x140(%ebp),%eax
     d84:	89 85 c0 fe ff ff    	mov    %eax,-0x140(%ebp)
     d8a:	eb 06                	jmp    d92 <_ZN9CharacterC1ERKNSt7__cxx1112basic_stringIcSt11char_traitsIcESaIcEEES7_ff+0xd92>
     d8c:	89 85 c0 fe ff ff    	mov    %eax,-0x140(%ebp)
     d92:	83 ec 0c             	sub    $0xc,%esp
     d95:	57                   	push   %edi
     d96:	89 f3                	mov    %esi,%ebx
     d98:	e8 fc ff ff ff       	call   d99 <_ZN9CharacterC1ERKNSt7__cxx1112basic_stringIcSt11char_traitsIcESaIcEEES7_ff+0xd99>
     d9d:	83 c4 10             	add    $0x10,%esp
     da0:	8b 9d c0 fe ff ff    	mov    -0x140(%ebp),%ebx
     da6:	e9 0b 02 00 00       	jmp    fb6 <_ZN9CharacterC1ERKNSt7__cxx1112basic_stringIcSt11char_traitsIcESaIcEEES7_ff+0xfb6>
     dab:	89 c7                	mov    %eax,%edi
     dad:	83 ec 0c             	sub    $0xc,%esp
     db0:	8d 85 48 ff ff ff    	lea    -0xb8(%ebp),%eax
     db6:	50                   	push   %eax
     db7:	89 f3                	mov    %esi,%ebx
     db9:	e8 fc ff ff ff       	call   dba <_ZN9CharacterC1ERKNSt7__cxx1112basic_stringIcSt11char_traitsIcESaIcEEES7_ff+0xdba>
     dbe:	83 c4 10             	add    $0x10,%esp
     dc1:	eb 02                	jmp    dc5 <_ZN9CharacterC1ERKNSt7__cxx1112basic_stringIcSt11char_traitsIcESaIcEEES7_ff+0xdc5>
     dc3:	89 c7                	mov    %eax,%edi
     dc5:	83 ec 0c             	sub    $0xc,%esp
     dc8:	8d 85 10 ff ff ff    	lea    -0xf0(%ebp),%eax
     dce:	50                   	push   %eax
     dcf:	89 f3                	mov    %esi,%ebx
     dd1:	e8 fc ff ff ff       	call   dd2 <_ZN9CharacterC1ERKNSt7__cxx1112basic_stringIcSt11char_traitsIcESaIcEEES7_ff+0xdd2>
     dd6:	83 c4 10             	add    $0x10,%esp
     dd9:	89 fb                	mov    %edi,%ebx
     ddb:	e9 d6 01 00 00       	jmp    fb6 <_ZN9CharacterC1ERKNSt7__cxx1112basic_stringIcSt11char_traitsIcESaIcEEES7_ff+0xfb6>
     de0:	89 c7                	mov    %eax,%edi
     de2:	83 ec 0c             	sub    $0xc,%esp
     de5:	8d 85 48 ff ff ff    	lea    -0xb8(%ebp),%eax
     deb:	50                   	push   %eax
     dec:	89 f3                	mov    %esi,%ebx
     dee:	e8 fc ff ff ff       	call   def <_ZN9CharacterC1ERKNSt7__cxx1112basic_stringIcSt11char_traitsIcESaIcEEES7_ff+0xdef>
     df3:	83 c4 10             	add    $0x10,%esp
     df6:	eb 02                	jmp    dfa <_ZN9CharacterC1ERKNSt7__cxx1112basic_stringIcSt11char_traitsIcESaIcEEES7_ff+0xdfa>
     df8:	89 c7                	mov    %eax,%edi
     dfa:	83 ec 0c             	sub    $0xc,%esp
     dfd:	8d 85 10 ff ff ff    	lea    -0xf0(%ebp),%eax
     e03:	50                   	push   %eax
     e04:	89 f3                	mov    %esi,%ebx
     e06:	e8 fc ff ff ff       	call   e07 <_ZN9CharacterC1ERKNSt7__cxx1112basic_stringIcSt11char_traitsIcESaIcEEES7_ff+0xe07>
     e0b:	83 c4 10             	add    $0x10,%esp
     e0e:	89 fb                	mov    %edi,%ebx
     e10:	e9 a1 01 00 00       	jmp    fb6 <_ZN9CharacterC1ERKNSt7__cxx1112basic_stringIcSt11char_traitsIcESaIcEEES7_ff+0xfb6>
     e15:	89 c7                	mov    %eax,%edi
     e17:	83 ec 0c             	sub    $0xc,%esp
     e1a:	8d 85 48 ff ff ff    	lea    -0xb8(%ebp),%eax
     e20:	50                   	push   %eax
     e21:	89 f3                	mov    %esi,%ebx
     e23:	e8 fc ff ff ff       	call   e24 <_ZN9CharacterC1ERKNSt7__cxx1112basic_stringIcSt11char_traitsIcESaIcEEES7_ff+0xe24>
     e28:	83 c4 10             	add    $0x10,%esp
     e2b:	eb 02                	jmp    e2f <_ZN9CharacterC1ERKNSt7__cxx1112basic_stringIcSt11char_traitsIcESaIcEEES7_ff+0xe2f>
     e2d:	89 c7                	mov    %eax,%edi
     e2f:	83 ec 0c             	sub    $0xc,%esp
     e32:	8d 85 10 ff ff ff    	lea    -0xf0(%ebp),%eax
     e38:	50                   	push   %eax
     e39:	89 f3                	mov    %esi,%ebx
     e3b:	e8 fc ff ff ff       	call   e3c <_ZN9CharacterC1ERKNSt7__cxx1112basic_stringIcSt11char_traitsIcESaIcEEES7_ff+0xe3c>
     e40:	83 c4 10             	add    $0x10,%esp
     e43:	89 fb                	mov    %edi,%ebx
     e45:	e9 6c 01 00 00       	jmp    fb6 <_ZN9CharacterC1ERKNSt7__cxx1112basic_stringIcSt11char_traitsIcESaIcEEES7_ff+0xfb6>
     e4a:	89 c7                	mov    %eax,%edi
     e4c:	83 ec 0c             	sub    $0xc,%esp
     e4f:	8d 85 48 ff ff ff    	lea    -0xb8(%ebp),%eax
     e55:	50                   	push   %eax
     e56:	89 f3                	mov    %esi,%ebx
     e58:	e8 fc ff ff ff       	call   e59 <_ZN9CharacterC1ERKNSt7__cxx1112basic_stringIcSt11char_traitsIcESaIcEEES7_ff+0xe59>
     e5d:	83 c4 10             	add    $0x10,%esp
     e60:	eb 02                	jmp    e64 <_ZN9CharacterC1ERKNSt7__cxx1112basic_stringIcSt11char_traitsIcESaIcEEES7_ff+0xe64>
     e62:	89 c7                	mov    %eax,%edi
     e64:	83 ec 0c             	sub    $0xc,%esp
     e67:	8d 85 10 ff ff ff    	lea    -0xf0(%ebp),%eax
     e6d:	50                   	push   %eax
     e6e:	89 f3                	mov    %esi,%ebx
     e70:	e8 fc ff ff ff       	call   e71 <_ZN9CharacterC1ERKNSt7__cxx1112basic_stringIcSt11char_traitsIcESaIcEEES7_ff+0xe71>
     e75:	83 c4 10             	add    $0x10,%esp
     e78:	89 fb                	mov    %edi,%ebx
     e7a:	e9 37 01 00 00       	jmp    fb6 <_ZN9CharacterC1ERKNSt7__cxx1112basic_stringIcSt11char_traitsIcESaIcEEES7_ff+0xfb6>
     e7f:	89 c7                	mov    %eax,%edi
     e81:	83 ec 0c             	sub    $0xc,%esp
     e84:	8d 85 48 ff ff ff    	lea    -0xb8(%ebp),%eax
     e8a:	50                   	push   %eax
     e8b:	89 f3                	mov    %esi,%ebx
     e8d:	e8 fc ff ff ff       	call   e8e <_ZN9CharacterC1ERKNSt7__cxx1112basic_stringIcSt11char_traitsIcESaIcEEES7_ff+0xe8e>
     e92:	83 c4 10             	add    $0x10,%esp
     e95:	eb 02                	jmp    e99 <_ZN9CharacterC1ERKNSt7__cxx1112basic_stringIcSt11char_traitsIcESaIcEEES7_ff+0xe99>
     e97:	89 c7                	mov    %eax,%edi
     e99:	83 ec 0c             	sub    $0xc,%esp
     e9c:	8d 85 10 ff ff ff    	lea    -0xf0(%ebp),%eax
     ea2:	50                   	push   %eax
     ea3:	89 f3                	mov    %esi,%ebx
     ea5:	e8 fc ff ff ff       	call   ea6 <_ZN9CharacterC1ERKNSt7__cxx1112basic_stringIcSt11char_traitsIcESaIcEEES7_ff+0xea6>
     eaa:	83 c4 10             	add    $0x10,%esp
     ead:	89 fb                	mov    %edi,%ebx
     eaf:	e9 02 01 00 00       	jmp    fb6 <_ZN9CharacterC1ERKNSt7__cxx1112basic_stringIcSt11char_traitsIcESaIcEEES7_ff+0xfb6>
     eb4:	89 c7                	mov    %eax,%edi
     eb6:	83 ec 0c             	sub    $0xc,%esp
     eb9:	8d 85 48 ff ff ff    	lea    -0xb8(%ebp),%eax
     ebf:	50                   	push   %eax
     ec0:	89 f3                	mov    %esi,%ebx
     ec2:	e8 fc ff ff ff       	call   ec3 <_ZN9CharacterC1ERKNSt7__cxx1112basic_stringIcSt11char_traitsIcESaIcEEES7_ff+0xec3>
     ec7:	83 c4 10             	add    $0x10,%esp
     eca:	eb 02                	jmp    ece <_ZN9CharacterC1ERKNSt7__cxx1112basic_stringIcSt11char_traitsIcESaIcEEES7_ff+0xece>
     ecc:	89 c7                	mov    %eax,%edi
     ece:	83 ec 0c             	sub    $0xc,%esp
     ed1:	8d 85 10 ff ff ff    	lea    -0xf0(%ebp),%eax
     ed7:	50                   	push   %eax
     ed8:	89 f3                	mov    %esi,%ebx
     eda:	e8 fc ff ff ff       	call   edb <_ZN9CharacterC1ERKNSt7__cxx1112basic_stringIcSt11char_traitsIcESaIcEEES7_ff+0xedb>
     edf:	83 c4 10             	add    $0x10,%esp
     ee2:	89 fb                	mov    %edi,%ebx
     ee4:	e9 cd 00 00 00       	jmp    fb6 <_ZN9CharacterC1ERKNSt7__cxx1112basic_stringIcSt11char_traitsIcESaIcEEES7_ff+0xfb6>
     ee9:	89 c7                	mov    %eax,%edi
     eeb:	83 ec 0c             	sub    $0xc,%esp
     eee:	8d 85 48 ff ff ff    	lea    -0xb8(%ebp),%eax
     ef4:	50                   	push   %eax
     ef5:	89 f3                	mov    %esi,%ebx
     ef7:	e8 fc ff ff ff       	call   ef8 <_ZN9CharacterC1ERKNSt7__cxx1112basic_stringIcSt11char_traitsIcESaIcEEES7_ff+0xef8>
     efc:	83 c4 10             	add    $0x10,%esp
     eff:	eb 02                	jmp    f03 <_ZN9CharacterC1ERKNSt7__cxx1112basic_stringIcSt11char_traitsIcESaIcEEES7_ff+0xf03>
     f01:	89 c7                	mov    %eax,%edi
     f03:	83 ec 0c             	sub    $0xc,%esp
     f06:	8d 85 10 ff ff ff    	lea    -0xf0(%ebp),%eax
     f0c:	50                   	push   %eax
     f0d:	89 f3                	mov    %esi,%ebx
     f0f:	e8 fc ff ff ff       	call   f10 <_ZN9CharacterC1ERKNSt7__cxx1112basic_stringIcSt11char_traitsIcESaIcEEES7_ff+0xf10>
     f14:	83 c4 10             	add    $0x10,%esp
     f17:	89 fb                	mov    %edi,%ebx
     f19:	e9 98 00 00 00       	jmp    fb6 <_ZN9CharacterC1ERKNSt7__cxx1112basic_stringIcSt11char_traitsIcESaIcEEES7_ff+0xfb6>
     f1e:	89 c7                	mov    %eax,%edi
     f20:	83 ec 0c             	sub    $0xc,%esp
     f23:	8d 85 48 ff ff ff    	lea    -0xb8(%ebp),%eax
     f29:	50                   	push   %eax
     f2a:	89 f3                	mov    %esi,%ebx
     f2c:	e8 fc ff ff ff       	call   f2d <_ZN9CharacterC1ERKNSt7__cxx1112basic_stringIcSt11char_traitsIcESaIcEEES7_ff+0xf2d>
     f31:	83 c4 10             	add    $0x10,%esp
     f34:	eb 02                	jmp    f38 <_ZN9CharacterC1ERKNSt7__cxx1112basic_stringIcSt11char_traitsIcESaIcEEES7_ff+0xf38>
     f36:	89 c7                	mov    %eax,%edi
     f38:	83 ec 0c             	sub    $0xc,%esp
     f3b:	8d 85 10 ff ff ff    	lea    -0xf0(%ebp),%eax
     f41:	50                   	push   %eax
     f42:	89 f3                	mov    %esi,%ebx
     f44:	e8 fc ff ff ff       	call   f45 <_ZN9CharacterC1ERKNSt7__cxx1112basic_stringIcSt11char_traitsIcESaIcEEES7_ff+0xf45>
     f49:	83 c4 10             	add    $0x10,%esp
     f4c:	89 fb                	mov    %edi,%ebx
     f4e:	eb 66                	jmp    fb6 <_ZN9CharacterC1ERKNSt7__cxx1112basic_stringIcSt11char_traitsIcESaIcEEES7_ff+0xfb6>
     f50:	89 c7                	mov    %eax,%edi
     f52:	83 ec 0c             	sub    $0xc,%esp
     f55:	8d 85 48 ff ff ff    	lea    -0xb8(%ebp),%eax
     f5b:	50                   	push   %eax
     f5c:	89 f3                	mov    %esi,%ebx
     f5e:	e8 fc ff ff ff       	call   f5f <_ZN9CharacterC1ERKNSt7__cxx1112basic_stringIcSt11char_traitsIcESaIcEEES7_ff+0xf5f>
     f63:	83 c4 10             	add    $0x10,%esp
     f66:	eb 02                	jmp    f6a <_ZN9CharacterC1ERKNSt7__cxx1112basic_stringIcSt11char_traitsIcESaIcEEES7_ff+0xf6a>
     f68:	89 c7                	mov    %eax,%edi
     f6a:	83 ec 0c             	sub    $0xc,%esp
     f6d:	8d 85 10 ff ff ff    	lea    -0xf0(%ebp),%eax
     f73:	50                   	push   %eax
     f74:	89 f3                	mov    %esi,%ebx
     f76:	e8 fc ff ff ff       	call   f77 <_ZN9CharacterC1ERKNSt7__cxx1112basic_stringIcSt11char_traitsIcESaIcEEES7_ff+0xf77>
     f7b:	83 c4 10             	add    $0x10,%esp
     f7e:	89 fb                	mov    %edi,%ebx
     f80:	eb 34                	jmp    fb6 <_ZN9CharacterC1ERKNSt7__cxx1112basic_stringIcSt11char_traitsIcESaIcEEES7_ff+0xfb6>
     f82:	89 c7                	mov    %eax,%edi
     f84:	83 ec 0c             	sub    $0xc,%esp
     f87:	8d 85 48 ff ff ff    	lea    -0xb8(%ebp),%eax
     f8d:	50                   	push   %eax
     f8e:	89 f3                	mov    %esi,%ebx
     f90:	e8 fc ff ff ff       	call   f91 <_ZN9CharacterC1ERKNSt7__cxx1112basic_stringIcSt11char_traitsIcESaIcEEES7_ff+0xf91>
     f95:	83 c4 10             	add    $0x10,%esp
     f98:	eb 02                	jmp    f9c <_ZN9CharacterC1ERKNSt7__cxx1112basic_stringIcSt11char_traitsIcESaIcEEES7_ff+0xf9c>
     f9a:	89 c7                	mov    %eax,%edi
     f9c:	83 ec 0c             	sub    $0xc,%esp
     f9f:	8d 85 10 ff ff ff    	lea    -0xf0(%ebp),%eax
     fa5:	50                   	push   %eax
     fa6:	89 f3                	mov    %esi,%ebx
     fa8:	e8 fc ff ff ff       	call   fa9 <_ZN9CharacterC1ERKNSt7__cxx1112basic_stringIcSt11char_traitsIcESaIcEEES7_ff+0xfa9>
     fad:	83 c4 10             	add    $0x10,%esp
     fb0:	89 fb                	mov    %edi,%ebx
     fb2:	eb 02                	jmp    fb6 <_ZN9CharacterC1ERKNSt7__cxx1112basic_stringIcSt11char_traitsIcESaIcEEES7_ff+0xfb6>
     fb4:	89 c3                	mov    %eax,%ebx
     fb6:	83 ec 0c             	sub    $0xc,%esp
     fb9:	8d 85 2c ff ff ff    	lea    -0xd4(%ebp),%eax
     fbf:	50                   	push   %eax
     fc0:	e8 fc ff ff ff       	call   fc1 <_ZN9CharacterC1ERKNSt7__cxx1112basic_stringIcSt11char_traitsIcESaIcEEES7_ff+0xfc1>
     fc5:	83 c4 10             	add    $0x10,%esp
     fc8:	eb 02                	jmp    fcc <_ZN9CharacterC1ERKNSt7__cxx1112basic_stringIcSt11char_traitsIcESaIcEEES7_ff+0xfcc>
     fca:	89 c3                	mov    %eax,%ebx
     fcc:	8b 85 d4 fe ff ff    	mov    -0x12c(%ebp),%eax
     fd2:	05 2c 01 00 00       	add    $0x12c,%eax
     fd7:	83 ec 0c             	sub    $0xc,%esp
     fda:	50                   	push   %eax
     fdb:	e8 fc ff ff ff       	call   fdc <_ZN9CharacterC1ERKNSt7__cxx1112basic_stringIcSt11char_traitsIcESaIcEEES7_ff+0xfdc>
     fe0:	83 c4 10             	add    $0x10,%esp
     fe3:	8b 85 d4 fe ff ff    	mov    -0x12c(%ebp),%eax
     fe9:	05 20 01 00 00       	add    $0x120,%eax
     fee:	83 ec 0c             	sub    $0xc,%esp
     ff1:	50                   	push   %eax
     ff2:	e8 fc ff ff ff       	call   ff3 <_ZN9CharacterC1ERKNSt7__cxx1112basic_stringIcSt11char_traitsIcESaIcEEES7_ff+0xff3>
     ff7:	83 c4 10             	add    $0x10,%esp
     ffa:	8b 85 d4 fe ff ff    	mov    -0x12c(%ebp),%eax
    1000:	05 14 01 00 00       	add    $0x114,%eax
    1005:	83 ec 0c             	sub    $0xc,%esp
    1008:	50                   	push   %eax
    1009:	e8 fc ff ff ff       	call   100a <_ZN9CharacterC1ERKNSt7__cxx1112basic_stringIcSt11char_traitsIcESaIcEEES7_ff+0x100a>
    100e:	83 c4 10             	add    $0x10,%esp
    1011:	8b 85 d4 fe ff ff    	mov    -0x12c(%ebp),%eax
    1017:	05 f8 00 00 00       	add    $0xf8,%eax
    101c:	83 ec 0c             	sub    $0xc,%esp
    101f:	50                   	push   %eax
    1020:	e8 fc ff ff ff       	call   1021 <_ZN9CharacterC1ERKNSt7__cxx1112basic_stringIcSt11char_traitsIcESaIcEEES7_ff+0x1021>
    1025:	83 c4 10             	add    $0x10,%esp
    1028:	8b 85 d4 fe ff ff    	mov    -0x12c(%ebp),%eax
    102e:	05 dc 00 00 00       	add    $0xdc,%eax
    1033:	83 ec 0c             	sub    $0xc,%esp
    1036:	50                   	push   %eax
    1037:	e8 fc ff ff ff       	call   1038 <_ZN9CharacterC1ERKNSt7__cxx1112basic_stringIcSt11char_traitsIcESaIcEEES7_ff+0x1038>
    103c:	83 c4 10             	add    $0x10,%esp
    103f:	8b 85 d4 fe ff ff    	mov    -0x12c(%ebp),%eax
    1045:	05 c0 00 00 00       	add    $0xc0,%eax
    104a:	83 ec 0c             	sub    $0xc,%esp
    104d:	50                   	push   %eax
    104e:	e8 fc ff ff ff       	call   104f <_ZN9CharacterC1ERKNSt7__cxx1112basic_stringIcSt11char_traitsIcESaIcEEES7_ff+0x104f>
    1053:	83 c4 10             	add    $0x10,%esp
    1056:	8b 85 d4 fe ff ff    	mov    -0x12c(%ebp),%eax
    105c:	05 a4 00 00 00       	add    $0xa4,%eax
    1061:	83 ec 0c             	sub    $0xc,%esp
    1064:	50                   	push   %eax
    1065:	e8 fc ff ff ff       	call   1066 <_ZN9CharacterC1ERKNSt7__cxx1112basic_stringIcSt11char_traitsIcESaIcEEES7_ff+0x1066>
    106a:	83 c4 10             	add    $0x10,%esp
    106d:	89 df                	mov    %ebx,%edi
    106f:	8b 85 d4 fe ff ff    	mov    -0x12c(%ebp),%eax
    1075:	83 c0 18             	add    $0x18,%eax
    1078:	83 ec 0c             	sub    $0xc,%esp
    107b:	50                   	push   %eax
    107c:	89 f3                	mov    %esi,%ebx
    107e:	e8 fc ff ff ff       	call   107f <_ZN9CharacterC1ERKNSt7__cxx1112basic_stringIcSt11char_traitsIcESaIcEEES7_ff+0x107f>
    1083:	83 c4 10             	add    $0x10,%esp
    1086:	8b 85 d4 fe ff ff    	mov    -0x12c(%ebp),%eax
    108c:	83 ec 0c             	sub    $0xc,%esp
    108f:	50                   	push   %eax
    1090:	89 f3                	mov    %esi,%ebx
    1092:	e8 fc ff ff ff       	call   1093 <_ZN9CharacterC1ERKNSt7__cxx1112basic_stringIcSt11char_traitsIcESaIcEEES7_ff+0x1093>
    1097:	83 c4 10             	add    $0x10,%esp
    109a:	89 f8                	mov    %edi,%eax
    109c:	83 ec 0c             	sub    $0xc,%esp
    109f:	50                   	push   %eax
    10a0:	89 f3                	mov    %esi,%ebx
    10a2:	e8 fc ff ff ff       	call   10a3 <_ZN9CharacterC1ERKNSt7__cxx1112basic_stringIcSt11char_traitsIcESaIcEEES7_ff+0x10a3>
    10a7:	e8 fc ff ff ff       	call   10a8 <_ZN9CharacterC1ERKNSt7__cxx1112basic_stringIcSt11char_traitsIcESaIcEEES7_ff+0x10a8>
    10ac:	8d 65 f4             	lea    -0xc(%ebp),%esp
    10af:	5b                   	pop    %ebx
    10b0:	5e                   	pop    %esi
    10b1:	5f                   	pop    %edi
    10b2:	5d                   	pop    %ebp
    10b3:	c3                   	ret    

000010b4 <_ZNK9Character10print_infoEv>:
    10b4:	55                   	push   %ebp
    10b5:	89 e5                	mov    %esp,%ebp
    10b7:	53                   	push   %ebx
    10b8:	83 ec 04             	sub    $0x4,%esp
    10bb:	e8 fc ff ff ff       	call   10bc <_ZNK9Character10print_infoEv+0x8>
    10c0:	81 c3 02 00 00 00    	add    $0x2,%ebx
    10c6:	8b 45 08             	mov    0x8(%ebp),%eax
    10c9:	83 ec 08             	sub    $0x8,%esp
    10cc:	50                   	push   %eax
    10cd:	8b 83 00 00 00 00    	mov    0x0(%ebx),%eax
    10d3:	50                   	push   %eax
    10d4:	e8 fc ff ff ff       	call   10d5 <_ZNK9Character10print_infoEv+0x21>
    10d9:	83 c4 10             	add    $0x10,%esp
    10dc:	83 ec 08             	sub    $0x8,%esp
    10df:	8d 93 88 00 00 00    	lea    0x88(%ebx),%edx
    10e5:	52                   	push   %edx
    10e6:	50                   	push   %eax
    10e7:	e8 fc ff ff ff       	call   10e8 <_ZNK9Character10print_infoEv+0x34>
    10ec:	83 c4 10             	add    $0x10,%esp
    10ef:	8b 55 08             	mov    0x8(%ebp),%edx
    10f2:	83 c2 18             	add    $0x18,%edx
    10f5:	83 ec 08             	sub    $0x8,%esp
    10f8:	52                   	push   %edx
    10f9:	50                   	push   %eax
    10fa:	e8 fc ff ff ff       	call   10fb <_ZNK9Character10print_infoEv+0x47>
    10ff:	83 c4 10             	add    $0x10,%esp
    1102:	83 ec 08             	sub    $0x8,%esp
    1105:	8d 93 8e 00 00 00    	lea    0x8e(%ebx),%edx
    110b:	52                   	push   %edx
    110c:	50                   	push   %eax
    110d:	e8 fc ff ff ff       	call   110e <_ZNK9Character10print_infoEv+0x5a>
    1112:	83 c4 10             	add    $0x10,%esp
    1115:	8b 55 08             	mov    0x8(%ebp),%edx
    1118:	d9 42 30             	flds   0x30(%edx)
    111b:	83 ec 08             	sub    $0x8,%esp
    111e:	8d 64 24 fc          	lea    -0x4(%esp),%esp
    1122:	d9 1c 24             	fstps  (%esp)
    1125:	50                   	push   %eax
    1126:	e8 fc ff ff ff       	call   1127 <_ZNK9Character10print_infoEv+0x73>
    112b:	83 c4 10             	add    $0x10,%esp
    112e:	83 ec 08             	sub    $0x8,%esp
    1131:	8d 93 97 00 00 00    	lea    0x97(%ebx),%edx
    1137:	52                   	push   %edx
    1138:	50                   	push   %eax
    1139:	e8 fc ff ff ff       	call   113a <_ZNK9Character10print_infoEv+0x86>
    113e:	83 c4 10             	add    $0x10,%esp
    1141:	8b 55 08             	mov    0x8(%ebp),%edx
    1144:	d9 42 34             	flds   0x34(%edx)
    1147:	83 ec 08             	sub    $0x8,%esp
    114a:	8d 64 24 fc          	lea    -0x4(%esp),%esp
    114e:	d9 1c 24             	fstps  (%esp)
    1151:	50                   	push   %eax
    1152:	e8 fc ff ff ff       	call   1153 <_ZNK9Character10print_infoEv+0x9f>
    1157:	83 c4 10             	add    $0x10,%esp
    115a:	83 ec 08             	sub    $0x8,%esp
    115d:	8d 93 9a 00 00 00    	lea    0x9a(%ebx),%edx
    1163:	52                   	push   %edx
    1164:	50                   	push   %eax
    1165:	e8 fc ff ff ff       	call   1166 <_ZNK9Character10print_infoEv+0xb2>
    116a:	83 c4 10             	add    $0x10,%esp
    116d:	8b 55 08             	mov    0x8(%ebp),%edx
    1170:	8b 52 38             	mov    0x38(%edx),%edx
    1173:	83 ec 08             	sub    $0x8,%esp
    1176:	52                   	push   %edx
    1177:	50                   	push   %eax
    1178:	e8 fc ff ff ff       	call   1179 <_ZNK9Character10print_infoEv+0xc5>
    117d:	83 c4 10             	add    $0x10,%esp
    1180:	83 ec 08             	sub    $0x8,%esp
    1183:	8d 93 a5 00 00 00    	lea    0xa5(%ebx),%edx
    1189:	52                   	push   %edx
    118a:	50                   	push   %eax
    118b:	e8 fc ff ff ff       	call   118c <_ZNK9Character10print_infoEv+0xd8>
    1190:	83 c4 10             	add    $0x10,%esp
    1193:	8b 55 08             	mov    0x8(%ebp),%edx
    1196:	8b 52 50             	mov    0x50(%edx),%edx
    1199:	83 ec 08             	sub    $0x8,%esp
    119c:	52                   	push   %edx
    119d:	50                   	push   %eax
    119e:	e8 fc ff ff ff       	call   119f <_ZNK9Character10print_infoEv+0xeb>
    11a3:	83 c4 10             	add    $0x10,%esp
    11a6:	83 ec 08             	sub    $0x8,%esp
    11a9:	8d 93 b4 00 00 00    	lea    0xb4(%ebx),%edx
    11af:	52                   	push   %edx
    11b0:	50                   	push   %eax
    11b1:	e8 fc ff ff ff       	call   11b2 <_ZNK9Character10print_infoEv+0xfe>
    11b6:	83 c4 10             	add    $0x10,%esp
    11b9:	8b 55 08             	mov    0x8(%ebp),%edx
    11bc:	8b 52 44             	mov    0x44(%edx),%edx
    11bf:	83 ec 08             	sub    $0x8,%esp
    11c2:	52                   	push   %edx
    11c3:	50                   	push   %eax
    11c4:	e8 fc ff ff ff       	call   11c5 <_ZNK9Character10print_infoEv+0x111>
    11c9:	83 c4 10             	add    $0x10,%esp
    11cc:	83 ec 08             	sub    $0x8,%esp
    11cf:	8d 93 d0 00 00 00    	lea    0xd0(%ebx),%edx
    11d5:	52                   	push   %edx
    11d6:	50                   	push   %eax
    11d7:	e8 fc ff ff ff       	call   11d8 <_ZNK9Character10print_infoEv+0x124>
    11dc:	83 c4 10             	add    $0x10,%esp
    11df:	8b 55 08             	mov    0x8(%ebp),%edx
    11e2:	8b 52 64             	mov    0x64(%edx),%edx
    11e5:	83 ec 08             	sub    $0x8,%esp
    11e8:	52                   	push   %edx
    11e9:	50                   	push   %eax
    11ea:	e8 fc ff ff ff       	call   11eb <_ZNK9Character10print_infoEv+0x137>
    11ef:	83 c4 10             	add    $0x10,%esp
    11f2:	83 ec 08             	sub    $0x8,%esp
    11f5:	8d 93 f0 00 00 00    	lea    0xf0(%ebx),%edx
    11fb:	52                   	push   %edx
    11fc:	50                   	push   %eax
    11fd:	e8 fc ff ff ff       	call   11fe <_ZNK9Character10print_infoEv+0x14a>
    1202:	83 c4 10             	add    $0x10,%esp
    1205:	8b 55 08             	mov    0x8(%ebp),%edx
    1208:	8b 52 3c             	mov    0x3c(%edx),%edx
    120b:	83 ec 08             	sub    $0x8,%esp
    120e:	52                   	push   %edx
    120f:	50                   	push   %eax
    1210:	e8 fc ff ff ff       	call   1211 <_ZNK9Character10print_infoEv+0x15d>
    1215:	83 c4 10             	add    $0x10,%esp
    1218:	83 ec 08             	sub    $0x8,%esp
    121b:	8d 93 04 01 00 00    	lea    0x104(%ebx),%edx
    1221:	52                   	push   %edx
    1222:	50                   	push   %eax
    1223:	e8 fc ff ff ff       	call   1224 <_ZNK9Character10print_infoEv+0x170>
    1228:	83 c4 10             	add    $0x10,%esp
    122b:	83 ec 08             	sub    $0x8,%esp
    122e:	8d 93 08 01 00 00    	lea    0x108(%ebx),%edx
    1234:	52                   	push   %edx
    1235:	50                   	push   %eax
    1236:	e8 fc ff ff ff       	call   1237 <_ZNK9Character10print_infoEv+0x183>
    123b:	83 c4 10             	add    $0x10,%esp
    123e:	8b 55 08             	mov    0x8(%ebp),%edx
    1241:	8b 92 98 00 00 00    	mov    0x98(%edx),%edx
    1247:	83 ec 08             	sub    $0x8,%esp
    124a:	52                   	push   %edx
    124b:	50                   	push   %eax
    124c:	e8 fc ff ff ff       	call   124d <_ZNK9Character10print_infoEv+0x199>
    1251:	83 c4 10             	add    $0x10,%esp
    1254:	83 ec 08             	sub    $0x8,%esp
    1257:	8d 93 2d 01 00 00    	lea    0x12d(%ebx),%edx
    125d:	52                   	push   %edx
    125e:	50                   	push   %eax
    125f:	e8 fc ff ff ff       	call   1260 <_ZNK9Character10print_infoEv+0x1ac>
    1264:	83 c4 10             	add    $0x10,%esp
    1267:	8b 55 08             	mov    0x8(%ebp),%edx
    126a:	8b 92 a0 00 00 00    	mov    0xa0(%edx),%edx
    1270:	83 ec 08             	sub    $0x8,%esp
    1273:	52                   	push   %edx
    1274:	50                   	push   %eax
    1275:	e8 fc ff ff ff       	call   1276 <_ZNK9Character10print_infoEv+0x1c2>
    127a:	83 c4 10             	add    $0x10,%esp
    127d:	83 ec 08             	sub    $0x8,%esp
    1280:	8d 93 04 01 00 00    	lea    0x104(%ebx),%edx
    1286:	52                   	push   %edx
    1287:	50                   	push   %eax
    1288:	e8 fc ff ff ff       	call   1289 <_ZNK9Character10print_infoEv+0x1d5>
    128d:	83 c4 10             	add    $0x10,%esp
    1290:	90                   	nop
    1291:	8b 5d fc             	mov    -0x4(%ebp),%ebx
    1294:	c9                   	leave  
    1295:	c3                   	ret    

00001296 <_ZNK9Character15print_equipmentEv>:
    1296:	55                   	push   %ebp
    1297:	89 e5                	mov    %esp,%ebp
    1299:	56                   	push   %esi
    129a:	53                   	push   %ebx
    129b:	83 ec 40             	sub    $0x40,%esp
    129e:	e8 fc ff ff ff       	call   129f <_ZNK9Character15print_equipmentEv+0x9>
    12a3:	81 c3 02 00 00 00    	add    $0x2,%ebx
    12a9:	8b 45 08             	mov    0x8(%ebp),%eax
    12ac:	89 45 c4             	mov    %eax,-0x3c(%ebp)
    12af:	65 a1 14 00 00 00    	mov    %gs:0x14,%eax
    12b5:	89 45 f4             	mov    %eax,-0xc(%ebp)
    12b8:	31 c0                	xor    %eax,%eax
    12ba:	8d 83 00 00 00 00    	lea    0x0(%ebx),%eax
    12c0:	89 45 e4             	mov    %eax,-0x1c(%ebp)
    12c3:	8d 45 d4             	lea    -0x2c(%ebp),%eax
    12c6:	83 ec 08             	sub    $0x8,%esp
    12c9:	ff 75 e4             	pushl  -0x1c(%ebp)
    12cc:	50                   	push   %eax
    12cd:	e8 fc ff ff ff       	call   12ce <_ZNK9Character15print_equipmentEv+0x38>
    12d2:	83 c4 0c             	add    $0xc,%esp
    12d5:	8d 45 d8             	lea    -0x28(%ebp),%eax
    12d8:	83 ec 08             	sub    $0x8,%esp
    12db:	ff 75 e4             	pushl  -0x1c(%ebp)
    12de:	50                   	push   %eax
    12df:	e8 fc ff ff ff       	call   12e0 <_ZNK9Character15print_equipmentEv+0x4a>
    12e4:	83 c4 0c             	add    $0xc,%esp
    12e7:	83 ec 08             	sub    $0x8,%esp
    12ea:	8d 45 d8             	lea    -0x28(%ebp),%eax
    12ed:	50                   	push   %eax
    12ee:	8d 45 d4             	lea    -0x2c(%ebp),%eax
    12f1:	50                   	push   %eax
    12f2:	e8 fc ff ff ff       	call   12f3 <_ZNK9Character15print_equipmentEv+0x5d>
    12f7:	83 c4 10             	add    $0x10,%esp
    12fa:	84 c0                	test   %al,%al
    12fc:	0f 84 3d 01 00 00    	je     143f <_ZNK9Character15print_equipmentEv+0x1a9>
    1302:	83 ec 0c             	sub    $0xc,%esp
    1305:	8d 45 d4             	lea    -0x2c(%ebp),%eax
    1308:	50                   	push   %eax
    1309:	e8 fc ff ff ff       	call   130a <_ZNK9Character15print_equipmentEv+0x74>
    130e:	83 c4 10             	add    $0x10,%esp
    1311:	89 45 f0             	mov    %eax,-0x10(%ebp)
    1314:	8b 45 c4             	mov    -0x3c(%ebp),%eax
    1317:	8d 90 c0 00 00 00    	lea    0xc0(%eax),%edx
    131d:	8d 45 dc             	lea    -0x24(%ebp),%eax
    1320:	83 ec 04             	sub    $0x4,%esp
    1323:	ff 75 f0             	pushl  -0x10(%ebp)
    1326:	52                   	push   %edx
    1327:	50                   	push   %eax
    1328:	e8 fc ff ff ff       	call   1329 <_ZNK9Character15print_equipmentEv+0x93>
    132d:	83 c4 0c             	add    $0xc,%esp
    1330:	8b 45 c4             	mov    -0x3c(%ebp),%eax
    1333:	8d 90 c0 00 00 00    	lea    0xc0(%eax),%edx
    1339:	8d 45 e0             	lea    -0x20(%ebp),%eax
    133c:	83 ec 08             	sub    $0x8,%esp
    133f:	52                   	push   %edx
    1340:	50                   	push   %eax
    1341:	e8 fc ff ff ff       	call   1342 <_ZNK9Character15print_equipmentEv+0xac>
    1346:	83 c4 0c             	add    $0xc,%esp
    1349:	83 ec 08             	sub    $0x8,%esp
    134c:	8d 45 e0             	lea    -0x20(%ebp),%eax
    134f:	50                   	push   %eax
    1350:	8d 45 dc             	lea    -0x24(%ebp),%eax
    1353:	50                   	push   %eax
    1354:	e8 fc ff ff ff       	call   1355 <_ZNK9Character15print_equipmentEv+0xbf>
    1359:	83 c4 10             	add    $0x10,%esp
    135c:	84 c0                	test   %al,%al
    135e:	74 1d                	je     137d <_ZNK9Character15print_equipmentEv+0xe7>
    1360:	83 ec 0c             	sub    $0xc,%esp
    1363:	8d 45 dc             	lea    -0x24(%ebp),%eax
    1366:	50                   	push   %eax
    1367:	e8 fc ff ff ff       	call   1368 <_ZNK9Character15print_equipmentEv+0xd2>
    136c:	83 c4 10             	add    $0x10,%esp
    136f:	8b 40 18             	mov    0x18(%eax),%eax
    1372:	85 c0                	test   %eax,%eax
    1374:	74 07                	je     137d <_ZNK9Character15print_equipmentEv+0xe7>
    1376:	b8 01 00 00 00       	mov    $0x1,%eax
    137b:	eb 05                	jmp    1382 <_ZNK9Character15print_equipmentEv+0xec>
    137d:	b8 00 00 00 00       	mov    $0x0,%eax
    1382:	84 c0                	test   %al,%al
    1384:	74 6a                	je     13f0 <_ZNK9Character15print_equipmentEv+0x15a>
    1386:	83 ec 08             	sub    $0x8,%esp
    1389:	ff 75 f0             	pushl  -0x10(%ebp)
    138c:	8b 83 00 00 00 00    	mov    0x0(%ebx),%eax
    1392:	50                   	push   %eax
    1393:	e8 fc ff ff ff       	call   1394 <_ZNK9Character15print_equipmentEv+0xfe>
    1398:	83 c4 10             	add    $0x10,%esp
    139b:	83 ec 08             	sub    $0x8,%esp
    139e:	8d 93 38 01 00 00    	lea    0x138(%ebx),%edx
    13a4:	52                   	push   %edx
    13a5:	50                   	push   %eax
    13a6:	e8 fc ff ff ff       	call   13a7 <_ZNK9Character15print_equipmentEv+0x111>
    13ab:	83 c4 10             	add    $0x10,%esp
    13ae:	89 c6                	mov    %eax,%esi
    13b0:	83 ec 0c             	sub    $0xc,%esp
    13b3:	8d 45 dc             	lea    -0x24(%ebp),%eax
    13b6:	50                   	push   %eax
    13b7:	e8 fc ff ff ff       	call   13b8 <_ZNK9Character15print_equipmentEv+0x122>
    13bc:	83 c4 10             	add    $0x10,%esp
    13bf:	8b 40 18             	mov    0x18(%eax),%eax
    13c2:	83 ec 0c             	sub    $0xc,%esp
    13c5:	50                   	push   %eax
    13c6:	e8 fc ff ff ff       	call   13c7 <_ZNK9Character15print_equipmentEv+0x131>
    13cb:	83 c4 10             	add    $0x10,%esp
    13ce:	83 ec 08             	sub    $0x8,%esp
    13d1:	50                   	push   %eax
    13d2:	56                   	push   %esi
    13d3:	e8 fc ff ff ff       	call   13d4 <_ZNK9Character15print_equipmentEv+0x13e>
    13d8:	83 c4 10             	add    $0x10,%esp
    13db:	83 ec 08             	sub    $0x8,%esp
    13de:	8d 93 04 01 00 00    	lea    0x104(%ebx),%edx
    13e4:	52                   	push   %edx
    13e5:	50                   	push   %eax
    13e6:	e8 fc ff ff ff       	call   13e7 <_ZNK9Character15print_equipmentEv+0x151>
    13eb:	83 c4 10             	add    $0x10,%esp
    13ee:	eb 3b                	jmp    142b <_ZNK9Character15print_equipmentEv+0x195>
    13f0:	83 ec 08             	sub    $0x8,%esp
    13f3:	8d 83 41 01 00 00    	lea    0x141(%ebx),%eax
    13f9:	50                   	push   %eax
    13fa:	8b 83 00 00 00 00    	mov    0x0(%ebx),%eax
    1400:	50                   	push   %eax
    1401:	e8 fc ff ff ff       	call   1402 <_ZNK9Character15print_equipmentEv+0x16c>
    1406:	83 c4 10             	add    $0x10,%esp
    1409:	83 ec 08             	sub    $0x8,%esp
    140c:	ff 75 f0             	pushl  -0x10(%ebp)
    140f:	50                   	push   %eax
    1410:	e8 fc ff ff ff       	call   1411 <_ZNK9Character15print_equipmentEv+0x17b>
    1415:	83 c4 10             	add    $0x10,%esp
    1418:	83 ec 08             	sub    $0x8,%esp
    141b:	8d 93 45 01 00 00    	lea    0x145(%ebx),%edx
    1421:	52                   	push   %edx
    1422:	50                   	push   %eax
    1423:	e8 fc ff ff ff       	call   1424 <_ZNK9Character15print_equipmentEv+0x18e>
    1428:	83 c4 10             	add    $0x10,%esp
    142b:	83 ec 0c             	sub    $0xc,%esp
    142e:	8d 45 d4             	lea    -0x2c(%ebp),%eax
    1431:	50                   	push   %eax
    1432:	e8 fc ff ff ff       	call   1433 <_ZNK9Character15print_equipmentEv+0x19d>
    1437:	83 c4 10             	add    $0x10,%esp
    143a:	e9 a8 fe ff ff       	jmp    12e7 <_ZNK9Character15print_equipmentEv+0x51>
    143f:	8d 83 00 00 00 00    	lea    0x0(%ebx),%eax
    1445:	89 45 e8             	mov    %eax,-0x18(%ebp)
    1448:	8d 45 d4             	lea    -0x2c(%ebp),%eax
    144b:	83 ec 08             	sub    $0x8,%esp
    144e:	ff 75 e8             	pushl  -0x18(%ebp)
    1451:	50                   	push   %eax
    1452:	e8 fc ff ff ff       	call   1453 <_ZNK9Character15print_equipmentEv+0x1bd>
    1457:	83 c4 0c             	add    $0xc,%esp
    145a:	8d 45 d8             	lea    -0x28(%ebp),%eax
    145d:	83 ec 08             	sub    $0x8,%esp
    1460:	ff 75 e8             	pushl  -0x18(%ebp)
    1463:	50                   	push   %eax
    1464:	e8 fc ff ff ff       	call   1465 <_ZNK9Character15print_equipmentEv+0x1cf>
    1469:	83 c4 0c             	add    $0xc,%esp
    146c:	83 ec 08             	sub    $0x8,%esp
    146f:	8d 45 d8             	lea    -0x28(%ebp),%eax
    1472:	50                   	push   %eax
    1473:	8d 45 d4             	lea    -0x2c(%ebp),%eax
    1476:	50                   	push   %eax
    1477:	e8 fc ff ff ff       	call   1478 <_ZNK9Character15print_equipmentEv+0x1e2>
    147c:	83 c4 10             	add    $0x10,%esp
    147f:	84 c0                	test   %al,%al
    1481:	0f 84 3d 01 00 00    	je     15c4 <_ZNK9Character15print_equipmentEv+0x32e>
    1487:	83 ec 0c             	sub    $0xc,%esp
    148a:	8d 45 d4             	lea    -0x2c(%ebp),%eax
    148d:	50                   	push   %eax
    148e:	e8 fc ff ff ff       	call   148f <_ZNK9Character15print_equipmentEv+0x1f9>
    1493:	83 c4 10             	add    $0x10,%esp
    1496:	89 45 ec             	mov    %eax,-0x14(%ebp)
    1499:	8b 45 c4             	mov    -0x3c(%ebp),%eax
    149c:	8d 90 dc 00 00 00    	lea    0xdc(%eax),%edx
    14a2:	8d 45 dc             	lea    -0x24(%ebp),%eax
    14a5:	83 ec 04             	sub    $0x4,%esp
    14a8:	ff 75 ec             	pushl  -0x14(%ebp)
    14ab:	52                   	push   %edx
    14ac:	50                   	push   %eax
    14ad:	e8 fc ff ff ff       	call   14ae <_ZNK9Character15print_equipmentEv+0x218>
    14b2:	83 c4 0c             	add    $0xc,%esp
    14b5:	8b 45 c4             	mov    -0x3c(%ebp),%eax
    14b8:	8d 90 dc 00 00 00    	lea    0xdc(%eax),%edx
    14be:	8d 45 e0             	lea    -0x20(%ebp),%eax
    14c1:	83 ec 08             	sub    $0x8,%esp
    14c4:	52                   	push   %edx
    14c5:	50                   	push   %eax
    14c6:	e8 fc ff ff ff       	call   14c7 <_ZNK9Character15print_equipmentEv+0x231>
    14cb:	83 c4 0c             	add    $0xc,%esp
    14ce:	83 ec 08             	sub    $0x8,%esp
    14d1:	8d 45 e0             	lea    -0x20(%ebp),%eax
    14d4:	50                   	push   %eax
    14d5:	8d 45 dc             	lea    -0x24(%ebp),%eax
    14d8:	50                   	push   %eax
    14d9:	e8 fc ff ff ff       	call   14da <_ZNK9Character15print_equipmentEv+0x244>
    14de:	83 c4 10             	add    $0x10,%esp
    14e1:	84 c0                	test   %al,%al
    14e3:	74 1d                	je     1502 <_ZNK9Character15print_equipmentEv+0x26c>
    14e5:	83 ec 0c             	sub    $0xc,%esp
    14e8:	8d 45 dc             	lea    -0x24(%ebp),%eax
    14eb:	50                   	push   %eax
    14ec:	e8 fc ff ff ff       	call   14ed <_ZNK9Character15print_equipmentEv+0x257>
    14f1:	83 c4 10             	add    $0x10,%esp
    14f4:	8b 40 18             	mov    0x18(%eax),%eax
    14f7:	85 c0                	test   %eax,%eax
    14f9:	74 07                	je     1502 <_ZNK9Character15print_equipmentEv+0x26c>
    14fb:	b8 01 00 00 00       	mov    $0x1,%eax
    1500:	eb 05                	jmp    1507 <_ZNK9Character15print_equipmentEv+0x271>
    1502:	b8 00 00 00 00       	mov    $0x0,%eax
    1507:	84 c0                	test   %al,%al
    1509:	74 6a                	je     1575 <_ZNK9Character15print_equipmentEv+0x2df>
    150b:	83 ec 08             	sub    $0x8,%esp
    150e:	ff 75 ec             	pushl  -0x14(%ebp)
    1511:	8b 83 00 00 00 00    	mov    0x0(%ebx),%eax
    1517:	50                   	push   %eax
    1518:	e8 fc ff ff ff       	call   1519 <_ZNK9Character15print_equipmentEv+0x283>
    151d:	83 c4 10             	add    $0x10,%esp
    1520:	83 ec 08             	sub    $0x8,%esp
    1523:	8d 93 57 01 00 00    	lea    0x157(%ebx),%edx
    1529:	52                   	push   %edx
    152a:	50                   	push   %eax
    152b:	e8 fc ff ff ff       	call   152c <_ZNK9Character15print_equipmentEv+0x296>
    1530:	83 c4 10             	add    $0x10,%esp
    1533:	89 c6                	mov    %eax,%esi
    1535:	83 ec 0c             	sub    $0xc,%esp
    1538:	8d 45 dc             	lea    -0x24(%ebp),%eax
    153b:	50                   	push   %eax
    153c:	e8 fc ff ff ff       	call   153d <_ZNK9Character15print_equipmentEv+0x2a7>
    1541:	83 c4 10             	add    $0x10,%esp
    1544:	8b 40 18             	mov    0x18(%eax),%eax
    1547:	83 ec 0c             	sub    $0xc,%esp
    154a:	50                   	push   %eax
    154b:	e8 fc ff ff ff       	call   154c <_ZNK9Character15print_equipmentEv+0x2b6>
    1550:	83 c4 10             	add    $0x10,%esp
    1553:	83 ec 08             	sub    $0x8,%esp
    1556:	50                   	push   %eax
    1557:	56                   	push   %esi
    1558:	e8 fc ff ff ff       	call   1559 <_ZNK9Character15print_equipmentEv+0x2c3>
    155d:	83 c4 10             	add    $0x10,%esp
    1560:	83 ec 08             	sub    $0x8,%esp
    1563:	8d 93 04 01 00 00    	lea    0x104(%ebx),%edx
    1569:	52                   	push   %edx
    156a:	50                   	push   %eax
    156b:	e8 fc ff ff ff       	call   156c <_ZNK9Character15print_equipmentEv+0x2d6>
    1570:	83 c4 10             	add    $0x10,%esp
    1573:	eb 3b                	jmp    15b0 <_ZNK9Character15print_equipmentEv+0x31a>
    1575:	83 ec 08             	sub    $0x8,%esp
    1578:	8d 83 41 01 00 00    	lea    0x141(%ebx),%eax
    157e:	50                   	push   %eax
    157f:	8b 83 00 00 00 00    	mov    0x0(%ebx),%eax
    1585:	50                   	push   %eax
    1586:	e8 fc ff ff ff       	call   1587 <_ZNK9Character15print_equipmentEv+0x2f1>
    158b:	83 c4 10             	add    $0x10,%esp
    158e:	83 ec 08             	sub    $0x8,%esp
    1591:	ff 75 ec             	pushl  -0x14(%ebp)
    1594:	50                   	push   %eax
    1595:	e8 fc ff ff ff       	call   1596 <_ZNK9Character15print_equipmentEv+0x300>
    159a:	83 c4 10             	add    $0x10,%esp
    159d:	83 ec 08             	sub    $0x8,%esp
    15a0:	8d 93 61 01 00 00    	lea    0x161(%ebx),%edx
    15a6:	52                   	push   %edx
    15a7:	50                   	push   %eax
    15a8:	e8 fc ff ff ff       	call   15a9 <_ZNK9Character15print_equipmentEv+0x313>
    15ad:	83 c4 10             	add    $0x10,%esp
    15b0:	83 ec 0c             	sub    $0xc,%esp
    15b3:	8d 45 d4             	lea    -0x2c(%ebp),%eax
    15b6:	50                   	push   %eax
    15b7:	e8 fc ff ff ff       	call   15b8 <_ZNK9Character15print_equipmentEv+0x322>
    15bc:	83 c4 10             	add    $0x10,%esp
    15bf:	e9 a8 fe ff ff       	jmp    146c <_ZNK9Character15print_equipmentEv+0x1d6>
    15c4:	90                   	nop
    15c5:	8b 45 f4             	mov    -0xc(%ebp),%eax
    15c8:	65 2b 05 14 00 00 00 	sub    %gs:0x14,%eax
    15cf:	74 05                	je     15d6 <_ZNK9Character15print_equipmentEv+0x340>
    15d1:	e8 fc ff ff ff       	call   15d2 <_ZNK9Character15print_equipmentEv+0x33c>
    15d6:	8d 65 f8             	lea    -0x8(%ebp),%esp
    15d9:	5b                   	pop    %ebx
    15da:	5e                   	pop    %esi
    15db:	5d                   	pop    %ebp
    15dc:	c3                   	ret    
    15dd:	90                   	nop

000015de <_ZNK9Character15print_inventoryEv>:
    15de:	55                   	push   %ebp
    15df:	89 e5                	mov    %esp,%ebp
    15e1:	53                   	push   %ebx
    15e2:	83 ec 54             	sub    $0x54,%esp
    15e5:	e8 fc ff ff ff       	call   15e6 <_ZNK9Character15print_inventoryEv+0x8>
    15ea:	81 c3 02 00 00 00    	add    $0x2,%ebx
    15f0:	8b 45 08             	mov    0x8(%ebp),%eax
    15f3:	89 45 b4             	mov    %eax,-0x4c(%ebp)
    15f6:	65 a1 14 00 00 00    	mov    %gs:0x14,%eax
    15fc:	89 45 f4             	mov    %eax,-0xc(%ebp)
    15ff:	31 c0                	xor    %eax,%eax
    1601:	8b 45 b4             	mov    -0x4c(%ebp),%eax
    1604:	05 f8 00 00 00       	add    $0xf8,%eax
    1609:	89 45 d4             	mov    %eax,-0x2c(%ebp)
    160c:	8d 45 c4             	lea    -0x3c(%ebp),%eax
    160f:	83 ec 08             	sub    $0x8,%esp
    1612:	ff 75 d4             	pushl  -0x2c(%ebp)
    1615:	50                   	push   %eax
    1616:	e8 fc ff ff ff       	call   1617 <_ZNK9Character15print_inventoryEv+0x39>
    161b:	83 c4 0c             	add    $0xc,%esp
    161e:	8d 45 c8             	lea    -0x38(%ebp),%eax
    1621:	83 ec 08             	sub    $0x8,%esp
    1624:	ff 75 d4             	pushl  -0x2c(%ebp)
    1627:	50                   	push   %eax
    1628:	e8 fc ff ff ff       	call   1629 <_ZNK9Character15print_inventoryEv+0x4b>
    162d:	83 c4 0c             	add    $0xc,%esp
    1630:	83 ec 08             	sub    $0x8,%esp
    1633:	8d 45 c8             	lea    -0x38(%ebp),%eax
    1636:	50                   	push   %eax
    1637:	8d 45 c4             	lea    -0x3c(%ebp),%eax
    163a:	50                   	push   %eax
    163b:	e8 fc ff ff ff       	call   163c <_ZNK9Character15print_inventoryEv+0x5e>
    1640:	83 c4 10             	add    $0x10,%esp
    1643:	84 c0                	test   %al,%al
    1645:	0f 84 5a 01 00 00    	je     17a5 <_ZNK9Character15print_inventoryEv+0x1c7>
    164b:	83 ec 0c             	sub    $0xc,%esp
    164e:	8d 45 c4             	lea    -0x3c(%ebp),%eax
    1651:	50                   	push   %eax
    1652:	e8 fc ff ff ff       	call   1653 <_ZNK9Character15print_inventoryEv+0x75>
    1657:	83 c4 10             	add    $0x10,%esp
    165a:	89 45 e0             	mov    %eax,-0x20(%ebp)
    165d:	8b 45 e0             	mov    -0x20(%ebp),%eax
    1660:	89 45 e4             	mov    %eax,-0x1c(%ebp)
    1663:	8b 45 e0             	mov    -0x20(%ebp),%eax
    1666:	83 c0 18             	add    $0x18,%eax
    1669:	89 45 e8             	mov    %eax,-0x18(%ebp)
    166c:	83 ec 08             	sub    $0x8,%esp
    166f:	ff 75 e4             	pushl  -0x1c(%ebp)
    1672:	8b 83 00 00 00 00    	mov    0x0(%ebx),%eax
    1678:	50                   	push   %eax
    1679:	e8 fc ff ff ff       	call   167a <_ZNK9Character15print_inventoryEv+0x9c>
    167e:	83 c4 10             	add    $0x10,%esp
    1681:	83 ec 08             	sub    $0x8,%esp
    1684:	8d 93 74 01 00 00    	lea    0x174(%ebx),%edx
    168a:	52                   	push   %edx
    168b:	50                   	push   %eax
    168c:	e8 fc ff ff ff       	call   168d <_ZNK9Character15print_inventoryEv+0xaf>
    1691:	83 c4 10             	add    $0x10,%esp
    1694:	83 ec 0c             	sub    $0xc,%esp
    1697:	ff 75 e8             	pushl  -0x18(%ebp)
    169a:	e8 fc ff ff ff       	call   169b <_ZNK9Character15print_inventoryEv+0xbd>
    169f:	83 c4 10             	add    $0x10,%esp
    16a2:	84 c0                	test   %al,%al
    16a4:	74 1e                	je     16c4 <_ZNK9Character15print_inventoryEv+0xe6>
    16a6:	83 ec 08             	sub    $0x8,%esp
    16a9:	8d 83 77 01 00 00    	lea    0x177(%ebx),%eax
    16af:	50                   	push   %eax
    16b0:	8b 83 00 00 00 00    	mov    0x0(%ebx),%eax
    16b6:	50                   	push   %eax
    16b7:	e8 fc ff ff ff       	call   16b8 <_ZNK9Character15print_inventoryEv+0xda>
    16bc:	83 c4 10             	add    $0x10,%esp
    16bf:	e9 cd 00 00 00       	jmp    1791 <_ZNK9Character15print_inventoryEv+0x1b3>
    16c4:	8b 45 e8             	mov    -0x18(%ebp),%eax
    16c7:	89 45 ec             	mov    %eax,-0x14(%ebp)
    16ca:	8d 45 cc             	lea    -0x34(%ebp),%eax
    16cd:	83 ec 08             	sub    $0x8,%esp
    16d0:	ff 75 ec             	pushl  -0x14(%ebp)
    16d3:	50                   	push   %eax
    16d4:	e8 fc ff ff ff       	call   16d5 <_ZNK9Character15print_inventoryEv+0xf7>
    16d9:	83 c4 0c             	add    $0xc,%esp
    16dc:	8d 45 d0             	lea    -0x30(%ebp),%eax
    16df:	83 ec 08             	sub    $0x8,%esp
    16e2:	ff 75 ec             	pushl  -0x14(%ebp)
    16e5:	50                   	push   %eax
    16e6:	e8 fc ff ff ff       	call   16e7 <_ZNK9Character15print_inventoryEv+0x109>
    16eb:	83 c4 0c             	add    $0xc,%esp
    16ee:	83 ec 08             	sub    $0x8,%esp
    16f1:	8d 45 d0             	lea    -0x30(%ebp),%eax
    16f4:	50                   	push   %eax
    16f5:	8d 45 cc             	lea    -0x34(%ebp),%eax
    16f8:	50                   	push   %eax
    16f9:	e8 fc ff ff ff       	call   16fa <_ZNK9Character15print_inventoryEv+0x11c>
    16fe:	83 c4 10             	add    $0x10,%esp
    1701:	84 c0                	test   %al,%al
    1703:	0f 84 88 00 00 00    	je     1791 <_ZNK9Character15print_inventoryEv+0x1b3>
    1709:	83 ec 0c             	sub    $0xc,%esp
    170c:	8d 45 cc             	lea    -0x34(%ebp),%eax
    170f:	50                   	push   %eax
    1710:	e8 fc ff ff ff       	call   1711 <_ZNK9Character15print_inventoryEv+0x133>
    1715:	83 c4 10             	add    $0x10,%esp
    1718:	89 45 f0             	mov    %eax,-0x10(%ebp)
    171b:	83 ec 08             	sub    $0x8,%esp
    171e:	8d 83 82 01 00 00    	lea    0x182(%ebx),%eax
    1724:	50                   	push   %eax
    1725:	8b 83 00 00 00 00    	mov    0x0(%ebx),%eax
    172b:	50                   	push   %eax
    172c:	e8 fc ff ff ff       	call   172d <_ZNK9Character15print_inventoryEv+0x14f>
    1731:	83 c4 10             	add    $0x10,%esp
    1734:	8b 55 f0             	mov    -0x10(%ebp),%edx
    1737:	83 ec 08             	sub    $0x8,%esp
    173a:	52                   	push   %edx
    173b:	50                   	push   %eax
    173c:	e8 fc ff ff ff       	call   173d <_ZNK9Character15print_inventoryEv+0x15f>
    1741:	83 c4 10             	add    $0x10,%esp
    1744:	83 ec 08             	sub    $0x8,%esp
    1747:	8d 93 85 01 00 00    	lea    0x185(%ebx),%edx
    174d:	52                   	push   %edx
    174e:	50                   	push   %eax
    174f:	e8 fc ff ff ff       	call   1750 <_ZNK9Character15print_inventoryEv+0x172>
    1754:	83 c4 10             	add    $0x10,%esp
    1757:	8b 55 f0             	mov    -0x10(%ebp),%edx
    175a:	8b 52 18             	mov    0x18(%edx),%edx
    175d:	83 ec 08             	sub    $0x8,%esp
    1760:	52                   	push   %edx
    1761:	50                   	push   %eax
    1762:	e8 fc ff ff ff       	call   1763 <_ZNK9Character15print_inventoryEv+0x185>
    1767:	83 c4 10             	add    $0x10,%esp
    176a:	83 ec 08             	sub    $0x8,%esp
    176d:	8d 93 04 01 00 00    	lea    0x104(%ebx),%edx
    1773:	52                   	push   %edx
    1774:	50                   	push   %eax
    1775:	e8 fc ff ff ff       	call   1776 <_ZNK9Character15print_inventoryEv+0x198>
    177a:	83 c4 10             	add    $0x10,%esp
    177d:	83 ec 0c             	sub    $0xc,%esp
    1780:	8d 45 cc             	lea    -0x34(%ebp),%eax
    1783:	50                   	push   %eax
    1784:	e8 fc ff ff ff       	call   1785 <_ZNK9Character15print_inventoryEv+0x1a7>
    1789:	83 c4 10             	add    $0x10,%esp
    178c:	e9 5d ff ff ff       	jmp    16ee <_ZNK9Character15print_inventoryEv+0x110>
    1791:	83 ec 0c             	sub    $0xc,%esp
    1794:	8d 45 c4             	lea    -0x3c(%ebp),%eax
    1797:	50                   	push   %eax
    1798:	e8 fc ff ff ff       	call   1799 <_ZNK9Character15print_inventoryEv+0x1bb>
    179d:	83 c4 10             	add    $0x10,%esp
    17a0:	e9 8b fe ff ff       	jmp    1630 <_ZNK9Character15print_inventoryEv+0x52>
    17a5:	83 ec 08             	sub    $0x8,%esp
    17a8:	8d 83 88 01 00 00    	lea    0x188(%ebx),%eax
    17ae:	50                   	push   %eax
    17af:	8b 83 00 00 00 00    	mov    0x0(%ebx),%eax
    17b5:	50                   	push   %eax
    17b6:	e8 fc ff ff ff       	call   17b7 <_ZNK9Character15print_inventoryEv+0x1d9>
    17bb:	83 c4 10             	add    $0x10,%esp
    17be:	8b 45 b4             	mov    -0x4c(%ebp),%eax
    17c1:	05 14 01 00 00       	add    $0x114,%eax
    17c6:	83 ec 0c             	sub    $0xc,%esp
    17c9:	50                   	push   %eax
    17ca:	e8 fc ff ff ff       	call   17cb <_ZNK9Character15print_inventoryEv+0x1ed>
    17cf:	83 c4 10             	add    $0x10,%esp
    17d2:	84 c0                	test   %al,%al
    17d4:	74 1e                	je     17f4 <_ZNK9Character15print_inventoryEv+0x216>
    17d6:	83 ec 08             	sub    $0x8,%esp
    17d9:	8d 83 94 01 00 00    	lea    0x194(%ebx),%eax
    17df:	50                   	push   %eax
    17e0:	8b 83 00 00 00 00    	mov    0x0(%ebx),%eax
    17e6:	50                   	push   %eax
    17e7:	e8 fc ff ff ff       	call   17e8 <_ZNK9Character15print_inventoryEv+0x20a>
    17ec:	83 c4 10             	add    $0x10,%esp
    17ef:	e9 a4 00 00 00       	jmp    1898 <_ZNK9Character15print_inventoryEv+0x2ba>
    17f4:	8b 45 b4             	mov    -0x4c(%ebp),%eax
    17f7:	05 14 01 00 00       	add    $0x114,%eax
    17fc:	89 45 d8             	mov    %eax,-0x28(%ebp)
    17ff:	8d 45 cc             	lea    -0x34(%ebp),%eax
    1802:	83 ec 08             	sub    $0x8,%esp
    1805:	ff 75 d8             	pushl  -0x28(%ebp)
    1808:	50                   	push   %eax
    1809:	e8 fc ff ff ff       	call   180a <_ZNK9Character15print_inventoryEv+0x22c>
    180e:	83 c4 0c             	add    $0xc,%esp
    1811:	8d 45 d0             	lea    -0x30(%ebp),%eax
    1814:	83 ec 08             	sub    $0x8,%esp
    1817:	ff 75 d8             	pushl  -0x28(%ebp)
    181a:	50                   	push   %eax
    181b:	e8 fc ff ff ff       	call   181c <_ZNK9Character15print_inventoryEv+0x23e>
    1820:	83 c4 0c             	add    $0xc,%esp
    1823:	83 ec 08             	sub    $0x8,%esp
    1826:	8d 45 d0             	lea    -0x30(%ebp),%eax
    1829:	50                   	push   %eax
    182a:	8d 45 cc             	lea    -0x34(%ebp),%eax
    182d:	50                   	push   %eax
    182e:	e8 fc ff ff ff       	call   182f <_ZNK9Character15print_inventoryEv+0x251>
    1833:	83 c4 10             	add    $0x10,%esp
    1836:	84 c0                	test   %al,%al
    1838:	74 5e                	je     1898 <_ZNK9Character15print_inventoryEv+0x2ba>
    183a:	83 ec 0c             	sub    $0xc,%esp
    183d:	8d 45 cc             	lea    -0x34(%ebp),%eax
    1840:	50                   	push   %eax
    1841:	e8 fc ff ff ff       	call   1842 <_ZNK9Character15print_inventoryEv+0x264>
    1846:	83 c4 10             	add    $0x10,%esp
    1849:	89 45 dc             	mov    %eax,-0x24(%ebp)
    184c:	83 ec 08             	sub    $0x8,%esp
    184f:	8d 83 82 01 00 00    	lea    0x182(%ebx),%eax
    1855:	50                   	push   %eax
    1856:	8b 83 00 00 00 00    	mov    0x0(%ebx),%eax
    185c:	50                   	push   %eax
    185d:	e8 fc ff ff ff       	call   185e <_ZNK9Character15print_inventoryEv+0x280>
    1862:	83 c4 10             	add    $0x10,%esp
    1865:	83 ec 08             	sub    $0x8,%esp
    1868:	ff 75 dc             	pushl  -0x24(%ebp)
    186b:	50                   	push   %eax
    186c:	e8 fc ff ff ff       	call   186d <_ZNK9Character15print_inventoryEv+0x28f>
    1871:	83 c4 10             	add    $0x10,%esp
    1874:	83 ec 08             	sub    $0x8,%esp
    1877:	8d 93 04 01 00 00    	lea    0x104(%ebx),%edx
    187d:	52                   	push   %edx
    187e:	50                   	push   %eax
    187f:	e8 fc ff ff ff       	call   1880 <_ZNK9Character15print_inventoryEv+0x2a2>
    1884:	83 c4 10             	add    $0x10,%esp
    1887:	83 ec 0c             	sub    $0xc,%esp
    188a:	8d 45 cc             	lea    -0x34(%ebp),%eax
    188d:	50                   	push   %eax
    188e:	e8 fc ff ff ff       	call   188f <_ZNK9Character15print_inventoryEv+0x2b1>
    1893:	83 c4 10             	add    $0x10,%esp
    1896:	eb 8b                	jmp    1823 <_ZNK9Character15print_inventoryEv+0x245>
    1898:	90                   	nop
    1899:	8b 45 f4             	mov    -0xc(%ebp),%eax
    189c:	65 2b 05 14 00 00 00 	sub    %gs:0x14,%eax
    18a3:	74 05                	je     18aa <_ZNK9Character15print_inventoryEv+0x2cc>
    18a5:	e8 fc ff ff ff       	call   18a6 <_ZNK9Character15print_inventoryEv+0x2c8>
    18aa:	8b 5d fc             	mov    -0x4(%ebp),%ebx
    18ad:	c9                   	leave  
    18ae:	c3                   	ret    
    18af:	90                   	nop

000018b0 <_ZNK9Character16print_spell_listEv>:
    18b0:	55                   	push   %ebp
    18b1:	89 e5                	mov    %esp,%ebp
    18b3:	53                   	push   %ebx
    18b4:	83 ec 34             	sub    $0x34,%esp
    18b7:	e8 fc ff ff ff       	call   18b8 <_ZNK9Character16print_spell_listEv+0x8>
    18bc:	81 c3 02 00 00 00    	add    $0x2,%ebx
    18c2:	8b 45 08             	mov    0x8(%ebp),%eax
    18c5:	89 45 d4             	mov    %eax,-0x2c(%ebp)
    18c8:	65 a1 14 00 00 00    	mov    %gs:0x14,%eax
    18ce:	89 45 f4             	mov    %eax,-0xc(%ebp)
    18d1:	31 c0                	xor    %eax,%eax
    18d3:	83 ec 08             	sub    $0x8,%esp
    18d6:	8d 83 9e 01 00 00    	lea    0x19e(%ebx),%eax
    18dc:	50                   	push   %eax
    18dd:	8b 83 00 00 00 00    	mov    0x0(%ebx),%eax
    18e3:	50                   	push   %eax
    18e4:	e8 fc ff ff ff       	call   18e5 <_ZNK9Character16print_spell_listEv+0x35>
    18e9:	83 c4 10             	add    $0x10,%esp
    18ec:	8b 45 d4             	mov    -0x2c(%ebp),%eax
    18ef:	05 20 01 00 00       	add    $0x120,%eax
    18f4:	83 ec 0c             	sub    $0xc,%esp
    18f7:	50                   	push   %eax
    18f8:	e8 fc ff ff ff       	call   18f9 <_ZNK9Character16print_spell_listEv+0x49>
    18fd:	83 c4 10             	add    $0x10,%esp
    1900:	84 c0                	test   %al,%al
    1902:	74 2e                	je     1932 <_ZNK9Character16print_spell_listEv+0x82>
    1904:	8b 45 d4             	mov    -0x2c(%ebp),%eax
    1907:	83 ec 08             	sub    $0x8,%esp
    190a:	50                   	push   %eax
    190b:	8b 83 00 00 00 00    	mov    0x0(%ebx),%eax
    1911:	50                   	push   %eax
    1912:	e8 fc ff ff ff       	call   1913 <_ZNK9Character16print_spell_listEv+0x63>
    1917:	83 c4 10             	add    $0x10,%esp
    191a:	83 ec 08             	sub    $0x8,%esp
    191d:	8d 93 ab 01 00 00    	lea    0x1ab(%ebx),%edx
    1923:	52                   	push   %edx
    1924:	50                   	push   %eax
    1925:	e8 fc ff ff ff       	call   1926 <_ZNK9Character16print_spell_listEv+0x76>
    192a:	83 c4 10             	add    $0x10,%esp
    192d:	e9 a4 00 00 00       	jmp    19d6 <_ZNK9Character16print_spell_listEv+0x126>
    1932:	8b 45 d4             	mov    -0x2c(%ebp),%eax
    1935:	05 20 01 00 00       	add    $0x120,%eax
    193a:	89 45 ec             	mov    %eax,-0x14(%ebp)
    193d:	8d 45 e4             	lea    -0x1c(%ebp),%eax
    1940:	83 ec 08             	sub    $0x8,%esp
    1943:	ff 75 ec             	pushl  -0x14(%ebp)
    1946:	50                   	push   %eax
    1947:	e8 fc ff ff ff       	call   1948 <_ZNK9Character16print_spell_listEv+0x98>
    194c:	83 c4 0c             	add    $0xc,%esp
    194f:	8d 45 e8             	lea    -0x18(%ebp),%eax
    1952:	83 ec 08             	sub    $0x8,%esp
    1955:	ff 75 ec             	pushl  -0x14(%ebp)
    1958:	50                   	push   %eax
    1959:	e8 fc ff ff ff       	call   195a <_ZNK9Character16print_spell_listEv+0xaa>
    195e:	83 c4 0c             	add    $0xc,%esp
    1961:	83 ec 08             	sub    $0x8,%esp
    1964:	8d 45 e8             	lea    -0x18(%ebp),%eax
    1967:	50                   	push   %eax
    1968:	8d 45 e4             	lea    -0x1c(%ebp),%eax
    196b:	50                   	push   %eax
    196c:	e8 fc ff ff ff       	call   196d <_ZNK9Character16print_spell_listEv+0xbd>
    1971:	83 c4 10             	add    $0x10,%esp
    1974:	84 c0                	test   %al,%al
    1976:	74 5e                	je     19d6 <_ZNK9Character16print_spell_listEv+0x126>
    1978:	83 ec 0c             	sub    $0xc,%esp
    197b:	8d 45 e4             	lea    -0x1c(%ebp),%eax
    197e:	50                   	push   %eax
    197f:	e8 fc ff ff ff       	call   1980 <_ZNK9Character16print_spell_listEv+0xd0>
    1984:	83 c4 10             	add    $0x10,%esp
    1987:	89 45 f0             	mov    %eax,-0x10(%ebp)
    198a:	83 ec 08             	sub    $0x8,%esp
    198d:	8d 83 82 01 00 00    	lea    0x182(%ebx),%eax
    1993:	50                   	push   %eax
    1994:	8b 83 00 00 00 00    	mov    0x0(%ebx),%eax
    199a:	50                   	push   %eax
    199b:	e8 fc ff ff ff       	call   199c <_ZNK9Character16print_spell_listEv+0xec>
    19a0:	83 c4 10             	add    $0x10,%esp
    19a3:	83 ec 08             	sub    $0x8,%esp
    19a6:	ff 75 f0             	pushl  -0x10(%ebp)
    19a9:	50                   	push   %eax
    19aa:	e8 fc ff ff ff       	call   19ab <_ZNK9Character16print_spell_listEv+0xfb>
    19af:	83 c4 10             	add    $0x10,%esp
    19b2:	83 ec 08             	sub    $0x8,%esp
    19b5:	8d 93 be 01 00 00    	lea    0x1be(%ebx),%edx
    19bb:	52                   	push   %edx
    19bc:	50                   	push   %eax
    19bd:	e8 fc ff ff ff       	call   19be <_ZNK9Character16print_spell_listEv+0x10e>
    19c2:	83 c4 10             	add    $0x10,%esp
    19c5:	83 ec 0c             	sub    $0xc,%esp
    19c8:	8d 45 e4             	lea    -0x1c(%ebp),%eax
    19cb:	50                   	push   %eax
    19cc:	e8 fc ff ff ff       	call   19cd <_ZNK9Character16print_spell_listEv+0x11d>
    19d1:	83 c4 10             	add    $0x10,%esp
    19d4:	eb 8b                	jmp    1961 <_ZNK9Character16print_spell_listEv+0xb1>
    19d6:	90                   	nop
    19d7:	8b 45 f4             	mov    -0xc(%ebp),%eax
    19da:	65 2b 05 14 00 00 00 	sub    %gs:0x14,%eax
    19e1:	74 05                	je     19e8 <_ZNK9Character16print_spell_listEv+0x138>
    19e3:	e8 fc ff ff ff       	call   19e4 <_ZNK9Character16print_spell_listEv+0x134>
    19e8:	8b 5d fc             	mov    -0x4(%ebp),%ebx
    19eb:	c9                   	leave  
    19ec:	c3                   	ret    
    19ed:	90                   	nop

000019ee <_ZN9Character4moveEff>:
    19ee:	55                   	push   %ebp
    19ef:	89 e5                	mov    %esp,%ebp
    19f1:	e8 fc ff ff ff       	call   19f2 <_ZN9Character4moveEff+0x4>
    19f6:	05 01 00 00 00       	add    $0x1,%eax
    19fb:	8b 45 08             	mov    0x8(%ebp),%eax
    19fe:	d9 40 30             	flds   0x30(%eax)
    1a01:	d8 45 0c             	fadds  0xc(%ebp)
    1a04:	8b 45 08             	mov    0x8(%ebp),%eax
    1a07:	d9 58 30             	fstps  0x30(%eax)
    1a0a:	8b 45 08             	mov    0x8(%ebp),%eax
    1a0d:	d9 40 34             	flds   0x34(%eax)
    1a10:	d8 45 10             	fadds  0x10(%ebp)
    1a13:	8b 45 08             	mov    0x8(%ebp),%eax
    1a16:	d9 58 34             	fstps  0x34(%eax)
    1a19:	90                   	nop
    1a1a:	5d                   	pop    %ebp
    1a1b:	c3                   	ret    

00001a1c <_Z41__static_initialization_and_destruction_0ii>:
    1a1c:	55                   	push   %ebp
    1a1d:	89 e5                	mov    %esp,%ebp
    1a1f:	57                   	push   %edi
    1a20:	56                   	push   %esi
    1a21:	53                   	push   %ebx
    1a22:	81 ec ec 00 00 00    	sub    $0xec,%esp
    1a28:	e8 fc ff ff ff       	call   1a29 <_Z41__static_initialization_and_destruction_0ii+0xd>
    1a2d:	81 c6 02 00 00 00    	add    $0x2,%esi
    1a33:	65 a1 14 00 00 00    	mov    %gs:0x14,%eax
    1a39:	89 45 e4             	mov    %eax,-0x1c(%ebp)
    1a3c:	31 c0                	xor    %eax,%eax
    1a3e:	83 7d 08 01          	cmpl   $0x1,0x8(%ebp)
    1a42:	0f 85 18 06 00 00    	jne    2060 <_Z41__static_initialization_and_destruction_0ii+0x644>
    1a48:	81 7d 0c ff ff 00 00 	cmpl   $0xffff,0xc(%ebp)
    1a4f:	0f 85 0b 06 00 00    	jne    2060 <_Z41__static_initialization_and_destruction_0ii+0x644>
    1a55:	83 ec 0c             	sub    $0xc,%esp
    1a58:	8d 86 18 00 00 00    	lea    0x18(%esi),%eax
    1a5e:	50                   	push   %eax
    1a5f:	89 f3                	mov    %esi,%ebx
    1a61:	e8 fc ff ff ff       	call   1a62 <_Z41__static_initialization_and_destruction_0ii+0x46>
    1a66:	83 c4 10             	add    $0x10,%esp
    1a69:	83 ec 04             	sub    $0x4,%esp
    1a6c:	8d 86 00 00 00 00    	lea    0x0(%esi),%eax
    1a72:	50                   	push   %eax
    1a73:	8d 86 18 00 00 00    	lea    0x18(%esi),%eax
    1a79:	50                   	push   %eax
    1a7a:	8b 86 00 00 00 00    	mov    0x0(%esi),%eax
    1a80:	50                   	push   %eax
    1a81:	89 f3                	mov    %esi,%ebx
    1a83:	e8 fc ff ff ff       	call   1a84 <_Z41__static_initialization_and_destruction_0ii+0x68>
    1a88:	83 c4 10             	add    $0x10,%esp
    1a8b:	83 ec 0c             	sub    $0xc,%esp
    1a8e:	8d 85 1b ff ff ff    	lea    -0xe5(%ebp),%eax
    1a94:	50                   	push   %eax
    1a95:	89 f3                	mov    %esi,%ebx
    1a97:	e8 fc ff ff ff       	call   1a98 <_Z41__static_initialization_and_destruction_0ii+0x7c>
    1a9c:	83 c4 10             	add    $0x10,%esp
    1a9f:	83 ec 04             	sub    $0x4,%esp
    1aa2:	8d 85 1b ff ff ff    	lea    -0xe5(%ebp),%eax
    1aa8:	50                   	push   %eax
    1aa9:	8d 86 22 02 00 00    	lea    0x222(%esi),%eax
    1aaf:	50                   	push   %eax
    1ab0:	8d 85 24 ff ff ff    	lea    -0xdc(%ebp),%eax
    1ab6:	50                   	push   %eax
    1ab7:	e8 fc ff ff ff       	call   1ab8 <_Z41__static_initialization_and_destruction_0ii+0x9c>
    1abc:	83 c4 10             	add    $0x10,%esp
    1abf:	83 ec 0c             	sub    $0xc,%esp
    1ac2:	8d 85 1c ff ff ff    	lea    -0xe4(%ebp),%eax
    1ac8:	50                   	push   %eax
    1ac9:	89 f3                	mov    %esi,%ebx
    1acb:	e8 fc ff ff ff       	call   1acc <_Z41__static_initialization_and_destruction_0ii+0xb0>
    1ad0:	83 c4 10             	add    $0x10,%esp
    1ad3:	83 ec 04             	sub    $0x4,%esp
    1ad6:	8d 85 1c ff ff ff    	lea    -0xe4(%ebp),%eax
    1adc:	50                   	push   %eax
    1add:	8d 86 27 02 00 00    	lea    0x227(%esi),%eax
    1ae3:	50                   	push   %eax
    1ae4:	8d 85 24 ff ff ff    	lea    -0xdc(%ebp),%eax
    1aea:	83 c0 18             	add    $0x18,%eax
    1aed:	50                   	push   %eax
    1aee:	e8 fc ff ff ff       	call   1aef <_Z41__static_initialization_and_destruction_0ii+0xd3>
    1af3:	83 c4 10             	add    $0x10,%esp
    1af6:	83 ec 0c             	sub    $0xc,%esp
    1af9:	8d 85 1d ff ff ff    	lea    -0xe3(%ebp),%eax
    1aff:	50                   	push   %eax
    1b00:	89 f3                	mov    %esi,%ebx
    1b02:	e8 fc ff ff ff       	call   1b03 <_Z41__static_initialization_and_destruction_0ii+0xe7>
    1b07:	83 c4 10             	add    $0x10,%esp
    1b0a:	83 ec 04             	sub    $0x4,%esp
    1b0d:	8d 85 1d ff ff ff    	lea    -0xe3(%ebp),%eax
    1b13:	50                   	push   %eax
    1b14:	8d 86 2d 02 00 00    	lea    0x22d(%esi),%eax
    1b1a:	50                   	push   %eax
    1b1b:	8d 85 24 ff ff ff    	lea    -0xdc(%ebp),%eax
    1b21:	83 c0 30             	add    $0x30,%eax
    1b24:	50                   	push   %eax
    1b25:	e8 fc ff ff ff       	call   1b26 <_Z41__static_initialization_and_destruction_0ii+0x10a>
    1b2a:	83 c4 10             	add    $0x10,%esp
    1b2d:	83 ec 0c             	sub    $0xc,%esp
    1b30:	8d 85 1e ff ff ff    	lea    -0xe2(%ebp),%eax
    1b36:	50                   	push   %eax
    1b37:	89 f3                	mov    %esi,%ebx
    1b39:	e8 fc ff ff ff       	call   1b3a <_Z41__static_initialization_and_destruction_0ii+0x11e>
    1b3e:	83 c4 10             	add    $0x10,%esp
    1b41:	83 ec 04             	sub    $0x4,%esp
    1b44:	8d 85 1e ff ff ff    	lea    -0xe2(%ebp),%eax
    1b4a:	50                   	push   %eax
    1b4b:	8d 86 33 02 00 00    	lea    0x233(%esi),%eax
    1b51:	50                   	push   %eax
    1b52:	8d 85 24 ff ff ff    	lea    -0xdc(%ebp),%eax
    1b58:	83 c0 48             	add    $0x48,%eax
    1b5b:	50                   	push   %eax
    1b5c:	e8 fc ff ff ff       	call   1b5d <_Z41__static_initialization_and_destruction_0ii+0x141>
    1b61:	83 c4 10             	add    $0x10,%esp
    1b64:	83 ec 0c             	sub    $0xc,%esp
    1b67:	8d 85 1f ff ff ff    	lea    -0xe1(%ebp),%eax
    1b6d:	50                   	push   %eax
    1b6e:	89 f3                	mov    %esi,%ebx
    1b70:	e8 fc ff ff ff       	call   1b71 <_Z41__static_initialization_and_destruction_0ii+0x155>
    1b75:	83 c4 10             	add    $0x10,%esp
    1b78:	83 ec 04             	sub    $0x4,%esp
    1b7b:	8d 85 1f ff ff ff    	lea    -0xe1(%ebp),%eax
    1b81:	50                   	push   %eax
    1b82:	8d 86 38 02 00 00    	lea    0x238(%esi),%eax
    1b88:	50                   	push   %eax
    1b89:	8d 85 24 ff ff ff    	lea    -0xdc(%ebp),%eax
    1b8f:	83 c0 60             	add    $0x60,%eax
    1b92:	50                   	push   %eax
    1b93:	e8 fc ff ff ff       	call   1b94 <_Z41__static_initialization_and_destruction_0ii+0x178>
    1b98:	83 c4 10             	add    $0x10,%esp
    1b9b:	83 ec 0c             	sub    $0xc,%esp
    1b9e:	8d 85 20 ff ff ff    	lea    -0xe0(%ebp),%eax
    1ba4:	50                   	push   %eax
    1ba5:	89 f3                	mov    %esi,%ebx
    1ba7:	e8 fc ff ff ff       	call   1ba8 <_Z41__static_initialization_and_destruction_0ii+0x18c>
    1bac:	83 c4 10             	add    $0x10,%esp
    1baf:	83 ec 04             	sub    $0x4,%esp
    1bb2:	8d 85 20 ff ff ff    	lea    -0xe0(%ebp),%eax
    1bb8:	50                   	push   %eax
    1bb9:	8d 86 3d 02 00 00    	lea    0x23d(%esi),%eax
    1bbf:	50                   	push   %eax
    1bc0:	8d 85 24 ff ff ff    	lea    -0xdc(%ebp),%eax
    1bc6:	83 c0 78             	add    $0x78,%eax
    1bc9:	50                   	push   %eax
    1bca:	e8 fc ff ff ff       	call   1bcb <_Z41__static_initialization_and_destruction_0ii+0x1af>
    1bcf:	83 c4 10             	add    $0x10,%esp
    1bd2:	83 ec 0c             	sub    $0xc,%esp
    1bd5:	8d 85 21 ff ff ff    	lea    -0xdf(%ebp),%eax
    1bdb:	50                   	push   %eax
    1bdc:	89 f3                	mov    %esi,%ebx
    1bde:	e8 fc ff ff ff       	call   1bdf <_Z41__static_initialization_and_destruction_0ii+0x1c3>
    1be3:	83 c4 10             	add    $0x10,%esp
    1be6:	83 ec 04             	sub    $0x4,%esp
    1be9:	8d 85 21 ff ff ff    	lea    -0xdf(%ebp),%eax
    1bef:	50                   	push   %eax
    1bf0:	8d 86 42 02 00 00    	lea    0x242(%esi),%eax
    1bf6:	50                   	push   %eax
    1bf7:	8d 85 24 ff ff ff    	lea    -0xdc(%ebp),%eax
    1bfd:	05 90 00 00 00       	add    $0x90,%eax
    1c02:	50                   	push   %eax
    1c03:	e8 fc ff ff ff       	call   1c04 <_Z41__static_initialization_and_destruction_0ii+0x1e8>
    1c08:	83 c4 10             	add    $0x10,%esp
    1c0b:	83 ec 0c             	sub    $0xc,%esp
    1c0e:	8d 85 22 ff ff ff    	lea    -0xde(%ebp),%eax
    1c14:	50                   	push   %eax
    1c15:	89 f3                	mov    %esi,%ebx
    1c17:	e8 fc ff ff ff       	call   1c18 <_Z41__static_initialization_and_destruction_0ii+0x1fc>
    1c1c:	83 c4 10             	add    $0x10,%esp
    1c1f:	83 ec 04             	sub    $0x4,%esp
    1c22:	8d 85 22 ff ff ff    	lea    -0xde(%ebp),%eax
    1c28:	50                   	push   %eax
    1c29:	8d 86 4d 02 00 00    	lea    0x24d(%esi),%eax
    1c2f:	50                   	push   %eax
    1c30:	8d 85 24 ff ff ff    	lea    -0xdc(%ebp),%eax
    1c36:	05 a8 00 00 00       	add    $0xa8,%eax
    1c3b:	50                   	push   %eax
    1c3c:	e8 fc ff ff ff       	call   1c3d <_Z41__static_initialization_and_destruction_0ii+0x221>
    1c41:	83 c4 10             	add    $0x10,%esp
    1c44:	8d 85 24 ff ff ff    	lea    -0xdc(%ebp),%eax
    1c4a:	89 85 08 ff ff ff    	mov    %eax,-0xf8(%ebp)
    1c50:	c7 85 0c ff ff ff 08 	movl   $0x8,-0xf4(%ebp)
    1c57:	00 00 00 
    1c5a:	83 ec 0c             	sub    $0xc,%esp
    1c5d:	8d 85 23 ff ff ff    	lea    -0xdd(%ebp),%eax
    1c63:	50                   	push   %eax
    1c64:	e8 fc ff ff ff       	call   1c65 <_Z41__static_initialization_and_destruction_0ii+0x249>
    1c69:	83 c4 10             	add    $0x10,%esp
    1c6c:	8d 85 23 ff ff ff    	lea    -0xdd(%ebp),%eax
    1c72:	50                   	push   %eax
    1c73:	ff b5 0c ff ff ff    	pushl  -0xf4(%ebp)
    1c79:	ff b5 08 ff ff ff    	pushl  -0xf8(%ebp)
    1c7f:	8d 86 00 00 00 00    	lea    0x0(%esi),%eax
    1c85:	50                   	push   %eax
    1c86:	e8 fc ff ff ff       	call   1c87 <_Z41__static_initialization_and_destruction_0ii+0x26b>
    1c8b:	83 c4 10             	add    $0x10,%esp
    1c8e:	83 ec 0c             	sub    $0xc,%esp
    1c91:	8d 85 23 ff ff ff    	lea    -0xdd(%ebp),%eax
    1c97:	50                   	push   %eax
    1c98:	e8 fc ff ff ff       	call   1c99 <_Z41__static_initialization_and_destruction_0ii+0x27d>
    1c9d:	83 c4 10             	add    $0x10,%esp
    1ca0:	8d bd 24 ff ff ff    	lea    -0xdc(%ebp),%edi
    1ca6:	81 c7 c0 00 00 00    	add    $0xc0,%edi
    1cac:	8d 85 24 ff ff ff    	lea    -0xdc(%ebp),%eax
    1cb2:	39 c7                	cmp    %eax,%edi
    1cb4:	74 13                	je     1cc9 <_Z41__static_initialization_and_destruction_0ii+0x2ad>
    1cb6:	83 ef 18             	sub    $0x18,%edi
    1cb9:	83 ec 0c             	sub    $0xc,%esp
    1cbc:	57                   	push   %edi
    1cbd:	89 f3                	mov    %esi,%ebx
    1cbf:	e8 fc ff ff ff       	call   1cc0 <_Z41__static_initialization_and_destruction_0ii+0x2a4>
    1cc4:	83 c4 10             	add    $0x10,%esp
    1cc7:	eb e3                	jmp    1cac <_Z41__static_initialization_and_destruction_0ii+0x290>
    1cc9:	83 ec 0c             	sub    $0xc,%esp
    1ccc:	8d 85 22 ff ff ff    	lea    -0xde(%ebp),%eax
    1cd2:	50                   	push   %eax
    1cd3:	89 f3                	mov    %esi,%ebx
    1cd5:	e8 fc ff ff ff       	call   1cd6 <_Z41__static_initialization_and_destruction_0ii+0x2ba>
    1cda:	83 c4 10             	add    $0x10,%esp
    1cdd:	83 ec 0c             	sub    $0xc,%esp
    1ce0:	8d 85 21 ff ff ff    	lea    -0xdf(%ebp),%eax
    1ce6:	50                   	push   %eax
    1ce7:	89 f3                	mov    %esi,%ebx
    1ce9:	e8 fc ff ff ff       	call   1cea <_Z41__static_initialization_and_destruction_0ii+0x2ce>
    1cee:	83 c4 10             	add    $0x10,%esp
    1cf1:	83 ec 0c             	sub    $0xc,%esp
    1cf4:	8d 85 20 ff ff ff    	lea    -0xe0(%ebp),%eax
    1cfa:	50                   	push   %eax
    1cfb:	89 f3                	mov    %esi,%ebx
    1cfd:	e8 fc ff ff ff       	call   1cfe <_Z41__static_initialization_and_destruction_0ii+0x2e2>
    1d02:	83 c4 10             	add    $0x10,%esp
    1d05:	83 ec 0c             	sub    $0xc,%esp
    1d08:	8d 85 1f ff ff ff    	lea    -0xe1(%ebp),%eax
    1d0e:	50                   	push   %eax
    1d0f:	89 f3                	mov    %esi,%ebx
    1d11:	e8 fc ff ff ff       	call   1d12 <_Z41__static_initialization_and_destruction_0ii+0x2f6>
    1d16:	83 c4 10             	add    $0x10,%esp
    1d19:	83 ec 0c             	sub    $0xc,%esp
    1d1c:	8d 85 1e ff ff ff    	lea    -0xe2(%ebp),%eax
    1d22:	50                   	push   %eax
    1d23:	89 f3                	mov    %esi,%ebx
    1d25:	e8 fc ff ff ff       	call   1d26 <_Z41__static_initialization_and_destruction_0ii+0x30a>
    1d2a:	83 c4 10             	add    $0x10,%esp
    1d2d:	83 ec 0c             	sub    $0xc,%esp
    1d30:	8d 85 1d ff ff ff    	lea    -0xe3(%ebp),%eax
    1d36:	50                   	push   %eax
    1d37:	89 f3                	mov    %esi,%ebx
    1d39:	e8 fc ff ff ff       	call   1d3a <_Z41__static_initialization_and_destruction_0ii+0x31e>
    1d3e:	83 c4 10             	add    $0x10,%esp
    1d41:	83 ec 0c             	sub    $0xc,%esp
    1d44:	8d 85 1c ff ff ff    	lea    -0xe4(%ebp),%eax
    1d4a:	50                   	push   %eax
    1d4b:	89 f3                	mov    %esi,%ebx
    1d4d:	e8 fc ff ff ff       	call   1d4e <_Z41__static_initialization_and_destruction_0ii+0x332>
    1d52:	83 c4 10             	add    $0x10,%esp
    1d55:	83 ec 0c             	sub    $0xc,%esp
    1d58:	8d 85 1b ff ff ff    	lea    -0xe5(%ebp),%eax
    1d5e:	50                   	push   %eax
    1d5f:	89 f3                	mov    %esi,%ebx
    1d61:	e8 fc ff ff ff       	call   1d62 <_Z41__static_initialization_and_destruction_0ii+0x346>
    1d66:	83 c4 10             	add    $0x10,%esp
    1d69:	83 ec 04             	sub    $0x4,%esp
    1d6c:	8d 86 00 00 00 00    	lea    0x0(%esi),%eax
    1d72:	50                   	push   %eax
    1d73:	8d 86 00 00 00 00    	lea    0x0(%esi),%eax
    1d79:	50                   	push   %eax
    1d7a:	8d 86 00 00 00 00    	lea    0x0(%esi),%eax
    1d80:	50                   	push   %eax
    1d81:	89 f3                	mov    %esi,%ebx
    1d83:	e8 fc ff ff ff       	call   1d84 <_Z41__static_initialization_and_destruction_0ii+0x368>
    1d88:	83 c4 10             	add    $0x10,%esp
    1d8b:	83 ec 0c             	sub    $0xc,%esp
    1d8e:	8d 85 21 ff ff ff    	lea    -0xdf(%ebp),%eax
    1d94:	50                   	push   %eax
    1d95:	89 f3                	mov    %esi,%ebx
    1d97:	e8 fc ff ff ff       	call   1d98 <_Z41__static_initialization_and_destruction_0ii+0x37c>
    1d9c:	83 c4 10             	add    $0x10,%esp
    1d9f:	83 ec 04             	sub    $0x4,%esp
    1da2:	8d 85 21 ff ff ff    	lea    -0xdf(%ebp),%eax
    1da8:	50                   	push   %eax
    1da9:	8d 86 42 02 00 00    	lea    0x242(%esi),%eax
    1daf:	50                   	push   %eax
    1db0:	8d 85 24 ff ff ff    	lea    -0xdc(%ebp),%eax
    1db6:	50                   	push   %eax
    1db7:	e8 fc ff ff ff       	call   1db8 <_Z41__static_initialization_and_destruction_0ii+0x39c>
    1dbc:	83 c4 10             	add    $0x10,%esp
    1dbf:	83 ec 0c             	sub    $0xc,%esp
    1dc2:	8d 85 22 ff ff ff    	lea    -0xde(%ebp),%eax
    1dc8:	50                   	push   %eax
    1dc9:	89 f3                	mov    %esi,%ebx
    1dcb:	e8 fc ff ff ff       	call   1dcc <_Z41__static_initialization_and_destruction_0ii+0x3b0>
    1dd0:	83 c4 10             	add    $0x10,%esp
    1dd3:	83 ec 04             	sub    $0x4,%esp
    1dd6:	8d 85 22 ff ff ff    	lea    -0xde(%ebp),%eax
    1ddc:	50                   	push   %eax
    1ddd:	8d 86 4d 02 00 00    	lea    0x24d(%esi),%eax
    1de3:	50                   	push   %eax
    1de4:	8d 85 24 ff ff ff    	lea    -0xdc(%ebp),%eax
    1dea:	83 c0 18             	add    $0x18,%eax
    1ded:	50                   	push   %eax
    1dee:	e8 fc ff ff ff       	call   1def <_Z41__static_initialization_and_destruction_0ii+0x3d3>
    1df3:	83 c4 10             	add    $0x10,%esp
    1df6:	8d 85 24 ff ff ff    	lea    -0xdc(%ebp),%eax
    1dfc:	89 85 10 ff ff ff    	mov    %eax,-0xf0(%ebp)
    1e02:	c7 85 14 ff ff ff 02 	movl   $0x2,-0xec(%ebp)
    1e09:	00 00 00 
    1e0c:	83 ec 0c             	sub    $0xc,%esp
    1e0f:	8d 85 23 ff ff ff    	lea    -0xdd(%ebp),%eax
    1e15:	50                   	push   %eax
    1e16:	e8 fc ff ff ff       	call   1e17 <_Z41__static_initialization_and_destruction_0ii+0x3fb>
    1e1b:	83 c4 10             	add    $0x10,%esp
    1e1e:	8d 85 23 ff ff ff    	lea    -0xdd(%ebp),%eax
    1e24:	50                   	push   %eax
    1e25:	ff b5 14 ff ff ff    	pushl  -0xec(%ebp)
    1e2b:	ff b5 10 ff ff ff    	pushl  -0xf0(%ebp)
    1e31:	8d 86 00 00 00 00    	lea    0x0(%esi),%eax
    1e37:	50                   	push   %eax
    1e38:	e8 fc ff ff ff       	call   1e39 <_Z41__static_initialization_and_destruction_0ii+0x41d>
    1e3d:	83 c4 10             	add    $0x10,%esp
    1e40:	83 ec 0c             	sub    $0xc,%esp
    1e43:	8d 85 23 ff ff ff    	lea    -0xdd(%ebp),%eax
    1e49:	50                   	push   %eax
    1e4a:	e8 fc ff ff ff       	call   1e4b <_Z41__static_initialization_and_destruction_0ii+0x42f>
    1e4f:	83 c4 10             	add    $0x10,%esp
    1e52:	8d bd 24 ff ff ff    	lea    -0xdc(%ebp),%edi
    1e58:	83 c7 30             	add    $0x30,%edi
    1e5b:	8d 85 24 ff ff ff    	lea    -0xdc(%ebp),%eax
    1e61:	39 c7                	cmp    %eax,%edi
    1e63:	74 13                	je     1e78 <_Z41__static_initialization_and_destruction_0ii+0x45c>
    1e65:	83 ef 18             	sub    $0x18,%edi
    1e68:	83 ec 0c             	sub    $0xc,%esp
    1e6b:	57                   	push   %edi
    1e6c:	89 f3                	mov    %esi,%ebx
    1e6e:	e8 fc ff ff ff       	call   1e6f <_Z41__static_initialization_and_destruction_0ii+0x453>
    1e73:	83 c4 10             	add    $0x10,%esp
    1e76:	eb e3                	jmp    1e5b <_Z41__static_initialization_and_destruction_0ii+0x43f>
    1e78:	83 ec 0c             	sub    $0xc,%esp
    1e7b:	8d 85 22 ff ff ff    	lea    -0xde(%ebp),%eax
    1e81:	50                   	push   %eax
    1e82:	89 f3                	mov    %esi,%ebx
    1e84:	e8 fc ff ff ff       	call   1e85 <_Z41__static_initialization_and_destruction_0ii+0x469>
    1e89:	83 c4 10             	add    $0x10,%esp
    1e8c:	83 ec 0c             	sub    $0xc,%esp
    1e8f:	8d 85 21 ff ff ff    	lea    -0xdf(%ebp),%eax
    1e95:	50                   	push   %eax
    1e96:	89 f3                	mov    %esi,%ebx
    1e98:	e8 fc ff ff ff       	call   1e99 <_Z41__static_initialization_and_destruction_0ii+0x47d>
    1e9d:	83 c4 10             	add    $0x10,%esp
    1ea0:	83 ec 04             	sub    $0x4,%esp
    1ea3:	8d 86 00 00 00 00    	lea    0x0(%esi),%eax
    1ea9:	50                   	push   %eax
    1eaa:	8d 86 00 00 00 00    	lea    0x0(%esi),%eax
    1eb0:	50                   	push   %eax
    1eb1:	8d 86 00 00 00 00    	lea    0x0(%esi),%eax
    1eb7:	50                   	push   %eax
    1eb8:	89 f3                	mov    %esi,%ebx
    1eba:	e8 fc ff ff ff       	call   1ebb <_Z41__static_initialization_and_destruction_0ii+0x49f>
    1ebf:	83 c4 10             	add    $0x10,%esp
    1ec2:	e9 99 01 00 00       	jmp    2060 <_Z41__static_initialization_and_destruction_0ii+0x644>
    1ec7:	89 c3                	mov    %eax,%ebx
    1ec9:	83 ec 0c             	sub    $0xc,%esp
    1ecc:	8d 85 23 ff ff ff    	lea    -0xdd(%ebp),%eax
    1ed2:	50                   	push   %eax
    1ed3:	e8 fc ff ff ff       	call   1ed4 <_Z41__static_initialization_and_destruction_0ii+0x4b8>
    1ed8:	83 c4 10             	add    $0x10,%esp
    1edb:	89 9d 10 ff ff ff    	mov    %ebx,-0xf0(%ebp)
    1ee1:	8d bd 24 ff ff ff    	lea    -0xdc(%ebp),%edi
    1ee7:	81 c7 c0 00 00 00    	add    $0xc0,%edi
    1eed:	8d 85 24 ff ff ff    	lea    -0xdc(%ebp),%eax
    1ef3:	39 c7                	cmp    %eax,%edi
    1ef5:	74 13                	je     1f0a <_Z41__static_initialization_and_destruction_0ii+0x4ee>
    1ef7:	83 ef 18             	sub    $0x18,%edi
    1efa:	83 ec 0c             	sub    $0xc,%esp
    1efd:	57                   	push   %edi
    1efe:	89 f3                	mov    %esi,%ebx
    1f00:	e8 fc ff ff ff       	call   1f01 <_Z41__static_initialization_and_destruction_0ii+0x4e5>
    1f05:	83 c4 10             	add    $0x10,%esp
    1f08:	eb e3                	jmp    1eed <_Z41__static_initialization_and_destruction_0ii+0x4d1>
    1f0a:	8b bd 10 ff ff ff    	mov    -0xf0(%ebp),%edi
    1f10:	eb 02                	jmp    1f14 <_Z41__static_initialization_and_destruction_0ii+0x4f8>
    1f12:	89 c7                	mov    %eax,%edi
    1f14:	83 ec 0c             	sub    $0xc,%esp
    1f17:	8d 85 22 ff ff ff    	lea    -0xde(%ebp),%eax
    1f1d:	50                   	push   %eax
    1f1e:	89 f3                	mov    %esi,%ebx
    1f20:	e8 fc ff ff ff       	call   1f21 <_Z41__static_initialization_and_destruction_0ii+0x505>
    1f25:	83 c4 10             	add    $0x10,%esp
    1f28:	eb 02                	jmp    1f2c <_Z41__static_initialization_and_destruction_0ii+0x510>
    1f2a:	89 c7                	mov    %eax,%edi
    1f2c:	83 ec 0c             	sub    $0xc,%esp
    1f2f:	8d 85 21 ff ff ff    	lea    -0xdf(%ebp),%eax
    1f35:	50                   	push   %eax
    1f36:	89 f3                	mov    %esi,%ebx
    1f38:	e8 fc ff ff ff       	call   1f39 <_Z41__static_initialization_and_destruction_0ii+0x51d>
    1f3d:	83 c4 10             	add    $0x10,%esp
    1f40:	eb 02                	jmp    1f44 <_Z41__static_initialization_and_destruction_0ii+0x528>
    1f42:	89 c7                	mov    %eax,%edi
    1f44:	83 ec 0c             	sub    $0xc,%esp
    1f47:	8d 85 20 ff ff ff    	lea    -0xe0(%ebp),%eax
    1f4d:	50                   	push   %eax
    1f4e:	89 f3                	mov    %esi,%ebx
    1f50:	e8 fc ff ff ff       	call   1f51 <_Z41__static_initialization_and_destruction_0ii+0x535>
    1f55:	83 c4 10             	add    $0x10,%esp
    1f58:	eb 02                	jmp    1f5c <_Z41__static_initialization_and_destruction_0ii+0x540>
    1f5a:	89 c7                	mov    %eax,%edi
    1f5c:	83 ec 0c             	sub    $0xc,%esp
    1f5f:	8d 85 1f ff ff ff    	lea    -0xe1(%ebp),%eax
    1f65:	50                   	push   %eax
    1f66:	89 f3                	mov    %esi,%ebx
    1f68:	e8 fc ff ff ff       	call   1f69 <_Z41__static_initialization_and_destruction_0ii+0x54d>
    1f6d:	83 c4 10             	add    $0x10,%esp
    1f70:	eb 02                	jmp    1f74 <_Z41__static_initialization_and_destruction_0ii+0x558>
    1f72:	89 c7                	mov    %eax,%edi
    1f74:	83 ec 0c             	sub    $0xc,%esp
    1f77:	8d 85 1e ff ff ff    	lea    -0xe2(%ebp),%eax
    1f7d:	50                   	push   %eax
    1f7e:	89 f3                	mov    %esi,%ebx
    1f80:	e8 fc ff ff ff       	call   1f81 <_Z41__static_initialization_and_destruction_0ii+0x565>
    1f85:	83 c4 10             	add    $0x10,%esp
    1f88:	eb 02                	jmp    1f8c <_Z41__static_initialization_and_destruction_0ii+0x570>
    1f8a:	89 c7                	mov    %eax,%edi
    1f8c:	83 ec 0c             	sub    $0xc,%esp
    1f8f:	8d 85 1d ff ff ff    	lea    -0xe3(%ebp),%eax
    1f95:	50                   	push   %eax
    1f96:	89 f3                	mov    %esi,%ebx
    1f98:	e8 fc ff ff ff       	call   1f99 <_Z41__static_initialization_and_destruction_0ii+0x57d>
    1f9d:	83 c4 10             	add    $0x10,%esp
    1fa0:	eb 02                	jmp    1fa4 <_Z41__static_initialization_and_destruction_0ii+0x588>
    1fa2:	89 c7                	mov    %eax,%edi
    1fa4:	83 ec 0c             	sub    $0xc,%esp
    1fa7:	8d 85 1c ff ff ff    	lea    -0xe4(%ebp),%eax
    1fad:	50                   	push   %eax
    1fae:	89 f3                	mov    %esi,%ebx
    1fb0:	e8 fc ff ff ff       	call   1fb1 <_Z41__static_initialization_and_destruction_0ii+0x595>
    1fb5:	83 c4 10             	add    $0x10,%esp
    1fb8:	eb 02                	jmp    1fbc <_Z41__static_initialization_and_destruction_0ii+0x5a0>
    1fba:	89 c7                	mov    %eax,%edi
    1fbc:	83 ec 0c             	sub    $0xc,%esp
    1fbf:	8d 85 1b ff ff ff    	lea    -0xe5(%ebp),%eax
    1fc5:	50                   	push   %eax
    1fc6:	89 f3                	mov    %esi,%ebx
    1fc8:	e8 fc ff ff ff       	call   1fc9 <_Z41__static_initialization_and_destruction_0ii+0x5ad>
    1fcd:	83 c4 10             	add    $0x10,%esp
    1fd0:	89 f8                	mov    %edi,%eax
    1fd2:	83 ec 0c             	sub    $0xc,%esp
    1fd5:	50                   	push   %eax
    1fd6:	89 f3                	mov    %esi,%ebx
    1fd8:	e8 fc ff ff ff       	call   1fd9 <_Z41__static_initialization_and_destruction_0ii+0x5bd>
    1fdd:	89 c3                	mov    %eax,%ebx
    1fdf:	83 ec 0c             	sub    $0xc,%esp
    1fe2:	8d 85 23 ff ff ff    	lea    -0xdd(%ebp),%eax
    1fe8:	50                   	push   %eax
    1fe9:	e8 fc ff ff ff       	call   1fea <_Z41__static_initialization_and_destruction_0ii+0x5ce>
    1fee:	83 c4 10             	add    $0x10,%esp
    1ff1:	89 9d 10 ff ff ff    	mov    %ebx,-0xf0(%ebp)
    1ff7:	8d bd 24 ff ff ff    	lea    -0xdc(%ebp),%edi
    1ffd:	83 c7 30             	add    $0x30,%edi
    2000:	8d 85 24 ff ff ff    	lea    -0xdc(%ebp),%eax
    2006:	39 c7                	cmp    %eax,%edi
    2008:	74 13                	je     201d <_Z41__static_initialization_and_destruction_0ii+0x601>
    200a:	83 ef 18             	sub    $0x18,%edi
    200d:	83 ec 0c             	sub    $0xc,%esp
    2010:	57                   	push   %edi
    2011:	89 f3                	mov    %esi,%ebx
    2013:	e8 fc ff ff ff       	call   2014 <_Z41__static_initialization_and_destruction_0ii+0x5f8>
    2018:	83 c4 10             	add    $0x10,%esp
    201b:	eb e3                	jmp    2000 <_Z41__static_initialization_and_destruction_0ii+0x5e4>
    201d:	8b bd 10 ff ff ff    	mov    -0xf0(%ebp),%edi
    2023:	eb 02                	jmp    2027 <_Z41__static_initialization_and_destruction_0ii+0x60b>
    2025:	89 c7                	mov    %eax,%edi
    2027:	83 ec 0c             	sub    $0xc,%esp
    202a:	8d 85 22 ff ff ff    	lea    -0xde(%ebp),%eax
    2030:	50                   	push   %eax
    2031:	89 f3                	mov    %esi,%ebx
    2033:	e8 fc ff ff ff       	call   2034 <_Z41__static_initialization_and_destruction_0ii+0x618>
    2038:	83 c4 10             	add    $0x10,%esp
    203b:	eb 02                	jmp    203f <_Z41__static_initialization_and_destruction_0ii+0x623>
    203d:	89 c7                	mov    %eax,%edi
    203f:	83 ec 0c             	sub    $0xc,%esp
    2042:	8d 85 21 ff ff ff    	lea    -0xdf(%ebp),%eax
    2048:	50                   	push   %eax
    2049:	89 f3                	mov    %esi,%ebx
    204b:	e8 fc ff ff ff       	call   204c <_Z41__static_initialization_and_destruction_0ii+0x630>
    2050:	83 c4 10             	add    $0x10,%esp
    2053:	89 f8                	mov    %edi,%eax
    2055:	83 ec 0c             	sub    $0xc,%esp
    2058:	50                   	push   %eax
    2059:	89 f3                	mov    %esi,%ebx
    205b:	e8 fc ff ff ff       	call   205c <_Z41__static_initialization_and_destruction_0ii+0x640>
    2060:	8b 45 e4             	mov    -0x1c(%ebp),%eax
    2063:	65 2b 05 14 00 00 00 	sub    %gs:0x14,%eax
    206a:	74 05                	je     2071 <_Z41__static_initialization_and_destruction_0ii+0x655>
    206c:	e8 fc ff ff ff       	call   206d <_Z41__static_initialization_and_destruction_0ii+0x651>
    2071:	8d 65 f4             	lea    -0xc(%ebp),%esp
    2074:	5b                   	pop    %ebx
    2075:	5e                   	pop    %esi
    2076:	5f                   	pop    %edi
    2077:	5d                   	pop    %ebp
    2078:	c3                   	ret    

00002079 <_GLOBAL__sub_I__ZN9Character11armor_slotsB5cxx11E>:
    2079:	55                   	push   %ebp
    207a:	89 e5                	mov    %esp,%ebp
    207c:	83 ec 08             	sub    $0x8,%esp
    207f:	e8 fc ff ff ff       	call   2080 <_GLOBAL__sub_I__ZN9Character11armor_slotsB5cxx11E+0x7>
    2084:	05 01 00 00 00       	add    $0x1,%eax
    2089:	83 ec 08             	sub    $0x8,%esp
    208c:	68 ff ff 00 00       	push   $0xffff
    2091:	6a 01                	push   $0x1
    2093:	e8 84 f9 ff ff       	call   1a1c <_Z41__static_initialization_and_destruction_0ii>
    2098:	83 c4 10             	add    $0x10,%esp
    209b:	c9                   	leave  
    209c:	c3                   	ret    

Disassembly of section .text._ZNSt11char_traitsIcE2ltERKcS2_:

00000000 <_ZNSt11char_traitsIcE2ltERKcS2_>:
   0:	55                   	push   %ebp
   1:	89 e5                	mov    %esp,%ebp
   3:	e8 fc ff ff ff       	call   4 <_ZNSt11char_traitsIcE2ltERKcS2_+0x4>
   8:	05 01 00 00 00       	add    $0x1,%eax
   d:	8b 45 08             	mov    0x8(%ebp),%eax
  10:	0f b6 00             	movzbl (%eax),%eax
  13:	89 c2                	mov    %eax,%edx
  15:	8b 45 0c             	mov    0xc(%ebp),%eax
  18:	0f b6 00             	movzbl (%eax),%eax
  1b:	38 c2                	cmp    %al,%dl
  1d:	0f 92 c0             	setb   %al
  20:	5d                   	pop    %ebp
  21:	c3                   	ret    

Disassembly of section .text._ZNSt11char_traitsIcE7compareEPKcS2_j:

00000000 <_ZNSt11char_traitsIcE7compareEPKcS2_j>:
   0:	55                   	push   %ebp
   1:	89 e5                	mov    %esp,%ebp
   3:	53                   	push   %ebx
   4:	83 ec 14             	sub    $0x14,%esp
   7:	e8 fc ff ff ff       	call   8 <_ZNSt11char_traitsIcE7compareEPKcS2_j+0x8>
   c:	05 01 00 00 00       	add    $0x1,%eax
  11:	83 7d 10 00          	cmpl   $0x0,0x10(%ebp)
  15:	75 0a                	jne    21 <_ZNSt11char_traitsIcE7compareEPKcS2_j+0x21>
  17:	b8 00 00 00 00       	mov    $0x0,%eax
  1c:	e9 8c 00 00 00       	jmp    ad <_ZNSt11char_traitsIcE7compareEPKcS2_j+0xad>
  21:	ba 00 00 00 00       	mov    $0x0,%edx
  26:	84 d2                	test   %dl,%dl
  28:	74 6c                	je     96 <_ZNSt11char_traitsIcE7compareEPKcS2_j+0x96>
  2a:	c7 45 f4 00 00 00 00 	movl   $0x0,-0xc(%ebp)
  31:	8b 45 f4             	mov    -0xc(%ebp),%eax
  34:	3b 45 10             	cmp    0x10(%ebp),%eax
  37:	73 56                	jae    8f <_ZNSt11char_traitsIcE7compareEPKcS2_j+0x8f>
  39:	8b 55 0c             	mov    0xc(%ebp),%edx
  3c:	8b 45 f4             	mov    -0xc(%ebp),%eax
  3f:	01 c2                	add    %eax,%edx
  41:	8b 4d 08             	mov    0x8(%ebp),%ecx
  44:	8b 45 f4             	mov    -0xc(%ebp),%eax
  47:	01 c8                	add    %ecx,%eax
  49:	83 ec 08             	sub    $0x8,%esp
  4c:	52                   	push   %edx
  4d:	50                   	push   %eax
  4e:	e8 fc ff ff ff       	call   4f <_ZNSt11char_traitsIcE7compareEPKcS2_j+0x4f>
  53:	83 c4 10             	add    $0x10,%esp
  56:	84 c0                	test   %al,%al
  58:	74 07                	je     61 <_ZNSt11char_traitsIcE7compareEPKcS2_j+0x61>
  5a:	b8 ff ff ff ff       	mov    $0xffffffff,%eax
  5f:	eb 4c                	jmp    ad <_ZNSt11char_traitsIcE7compareEPKcS2_j+0xad>
  61:	8b 55 08             	mov    0x8(%ebp),%edx
  64:	8b 45 f4             	mov    -0xc(%ebp),%eax
  67:	01 c2                	add    %eax,%edx
  69:	8b 4d 0c             	mov    0xc(%ebp),%ecx
  6c:	8b 45 f4             	mov    -0xc(%ebp),%eax
  6f:	01 c8                	add    %ecx,%eax
  71:	83 ec 08             	sub    $0x8,%esp
  74:	52                   	push   %edx
  75:	50                   	push   %eax
  76:	e8 fc ff ff ff       	call   77 <_ZNSt11char_traitsIcE7compareEPKcS2_j+0x77>
  7b:	83 c4 10             	add    $0x10,%esp
  7e:	84 c0                	test   %al,%al
  80:	74 07                	je     89 <_ZNSt11char_traitsIcE7compareEPKcS2_j+0x89>
  82:	b8 01 00 00 00       	mov    $0x1,%eax
  87:	eb 24                	jmp    ad <_ZNSt11char_traitsIcE7compareEPKcS2_j+0xad>
  89:	83 45 f4 01          	addl   $0x1,-0xc(%ebp)
  8d:	eb a2                	jmp    31 <_ZNSt11char_traitsIcE7compareEPKcS2_j+0x31>
  8f:	b8 00 00 00 00       	mov    $0x0,%eax
  94:	eb 17                	jmp    ad <_ZNSt11char_traitsIcE7compareEPKcS2_j+0xad>
  96:	83 ec 04             	sub    $0x4,%esp
  99:	ff 75 10             	pushl  0x10(%ebp)
  9c:	ff 75 0c             	pushl  0xc(%ebp)
  9f:	ff 75 08             	pushl  0x8(%ebp)
  a2:	89 c3                	mov    %eax,%ebx
  a4:	e8 fc ff ff ff       	call   a5 <_ZNSt11char_traitsIcE7compareEPKcS2_j+0xa5>
  a9:	83 c4 10             	add    $0x10,%esp
  ac:	90                   	nop
  ad:	8b 5d fc             	mov    -0x4(%ebp),%ebx
  b0:	c9                   	leave  
  b1:	c3                   	ret    

Disassembly of section .text._ZNSt11char_traitsIcE6lengthEPKc:

00000000 <_ZNSt11char_traitsIcE6lengthEPKc>:
   0:	55                   	push   %ebp
   1:	89 e5                	mov    %esp,%ebp
   3:	53                   	push   %ebx
   4:	83 ec 14             	sub    $0x14,%esp
   7:	e8 fc ff ff ff       	call   8 <_ZNSt11char_traitsIcE6lengthEPKc+0x8>
   c:	05 01 00 00 00       	add    $0x1,%eax
  11:	8b 55 08             	mov    0x8(%ebp),%edx
  14:	89 55 f4             	mov    %edx,-0xc(%ebp)
  17:	ba 00 00 00 00       	mov    $0x0,%edx
  1c:	84 d2                	test   %dl,%dl
  1e:	74 10                	je     30 <_ZNSt11char_traitsIcE6lengthEPKc+0x30>
  20:	83 ec 0c             	sub    $0xc,%esp
  23:	ff 75 08             	pushl  0x8(%ebp)
  26:	e8 fc ff ff ff       	call   27 <_ZNSt11char_traitsIcE6lengthEPKc+0x27>
  2b:	83 c4 10             	add    $0x10,%esp
  2e:	eb 11                	jmp    41 <_ZNSt11char_traitsIcE6lengthEPKc+0x41>
  30:	83 ec 0c             	sub    $0xc,%esp
  33:	ff 75 08             	pushl  0x8(%ebp)
  36:	89 c3                	mov    %eax,%ebx
  38:	e8 fc ff ff ff       	call   39 <_ZNSt11char_traitsIcE6lengthEPKc+0x39>
  3d:	83 c4 10             	add    $0x10,%esp
  40:	90                   	nop
  41:	8b 5d fc             	mov    -0x4(%ebp),%ebx
  44:	c9                   	leave  
  45:	c3                   	ret    

Disassembly of section .text._ZnwjPv:

00000000 <_ZnwjPv>:
   0:	55                   	push   %ebp
   1:	89 e5                	mov    %esp,%ebp
   3:	e8 fc ff ff ff       	call   4 <_ZnwjPv+0x4>
   8:	05 01 00 00 00       	add    $0x1,%eax
   d:	8b 45 0c             	mov    0xc(%ebp),%eax
  10:	5d                   	pop    %ebp
  11:	c3                   	ret    

Disassembly of section .text._ZdlPvS_:

00000000 <_ZdlPvS_>:
   0:	55                   	push   %ebp
   1:	89 e5                	mov    %esp,%ebp
   3:	e8 fc ff ff ff       	call   4 <_ZdlPvS_+0x4>
   8:	05 01 00 00 00       	add    $0x1,%eax
   d:	90                   	nop
   e:	5d                   	pop    %ebp
   f:	c3                   	ret    

Disassembly of section .text._ZNSt10_Hash_impl4hashEPKvjj:

00000000 <_ZNSt10_Hash_impl4hashEPKvjj>:
   0:	55                   	push   %ebp
   1:	89 e5                	mov    %esp,%ebp
   3:	53                   	push   %ebx
   4:	83 ec 04             	sub    $0x4,%esp
   7:	e8 fc ff ff ff       	call   8 <_ZNSt10_Hash_impl4hashEPKvjj+0x8>
   c:	05 01 00 00 00       	add    $0x1,%eax
  11:	83 ec 04             	sub    $0x4,%esp
  14:	ff 75 10             	pushl  0x10(%ebp)
  17:	ff 75 0c             	pushl  0xc(%ebp)
  1a:	ff 75 08             	pushl  0x8(%ebp)
  1d:	89 c3                	mov    %eax,%ebx
  1f:	e8 fc ff ff ff       	call   20 <_ZNSt10_Hash_impl4hashEPKvjj+0x20>
  24:	83 c4 10             	add    $0x10,%esp
  27:	8b 5d fc             	mov    -0x4(%ebp),%ebx
  2a:	c9                   	leave  
  2b:	c3                   	ret    

Disassembly of section .text._ZNKSt4hashINSt7__cxx1112basic_stringIcSt11char_traitsIcESaIcEEEEclERKS5_:

00000000 <_ZNKSt4hashINSt7__cxx1112basic_stringIcSt11char_traitsIcESaIcEEEEclERKS5_>:
   0:	55                   	push   %ebp
   1:	89 e5                	mov    %esp,%ebp
   3:	56                   	push   %esi
   4:	53                   	push   %ebx
   5:	e8 fc ff ff ff       	call   6 <_ZNKSt4hashINSt7__cxx1112basic_stringIcSt11char_traitsIcESaIcEEEEclERKS5_+0x6>
   a:	81 c3 02 00 00 00    	add    $0x2,%ebx
  10:	83 ec 0c             	sub    $0xc,%esp
  13:	ff 75 0c             	pushl  0xc(%ebp)
  16:	e8 fc ff ff ff       	call   17 <_ZNKSt4hashINSt7__cxx1112basic_stringIcSt11char_traitsIcESaIcEEEEclERKS5_+0x17>
  1b:	83 c4 10             	add    $0x10,%esp
  1e:	89 c6                	mov    %eax,%esi
  20:	83 ec 0c             	sub    $0xc,%esp
  23:	ff 75 0c             	pushl  0xc(%ebp)
  26:	e8 fc ff ff ff       	call   27 <_ZNKSt4hashINSt7__cxx1112basic_stringIcSt11char_traitsIcESaIcEEEEclERKS5_+0x27>
  2b:	83 c4 10             	add    $0x10,%esp
  2e:	83 ec 04             	sub    $0x4,%esp
  31:	68 07 69 0f c7       	push   $0xc70f6907
  36:	56                   	push   %esi
  37:	50                   	push   %eax
  38:	e8 fc ff ff ff       	call   39 <_ZNKSt4hashINSt7__cxx1112basic_stringIcSt11char_traitsIcESaIcEEEEclERKS5_+0x39>
  3d:	83 c4 10             	add    $0x10,%esp
  40:	8d 65 f8             	lea    -0x8(%ebp),%esp
  43:	5b                   	pop    %ebx
  44:	5e                   	pop    %esi
  45:	5d                   	pop    %ebp
  46:	c3                   	ret    

Disassembly of section .text._ZNSt8__detail15_Hash_node_baseC2Ev:

00000000 <_ZNSt8__detail15_Hash_node_baseC1Ev>:
   0:	55                   	push   %ebp
   1:	89 e5                	mov    %esp,%ebp
   3:	e8 fc ff ff ff       	call   4 <_ZNSt8__detail15_Hash_node_baseC1Ev+0x4>
   8:	05 01 00 00 00       	add    $0x1,%eax
   d:	8b 45 08             	mov    0x8(%ebp),%eax
  10:	c7 00 00 00 00 00    	movl   $0x0,(%eax)
  16:	90                   	nop
  17:	5d                   	pop    %ebp
  18:	c3                   	ret    

Disassembly of section .text._ZNKSt8__detail18_Mod_range_hashingclEjj:

00000000 <_ZNKSt8__detail18_Mod_range_hashingclEjj>:
   0:	55                   	push   %ebp
   1:	89 e5                	mov    %esp,%ebp
   3:	e8 fc ff ff ff       	call   4 <_ZNKSt8__detail18_Mod_range_hashingclEjj+0x4>
   8:	05 01 00 00 00       	add    $0x1,%eax
   d:	8b 45 0c             	mov    0xc(%ebp),%eax
  10:	ba 00 00 00 00       	mov    $0x0,%edx
  15:	f7 75 10             	divl   0x10(%ebp)
  18:	89 d0                	mov    %edx,%eax
  1a:	5d                   	pop    %ebp
  1b:	c3                   	ret    

Disassembly of section .text._ZNSt8__detail20_Prime_rehash_policyC2Ef:

00000000 <_ZNSt8__detail20_Prime_rehash_policyC1Ef>:
   0:	55                   	push   %ebp
   1:	89 e5                	mov    %esp,%ebp
   3:	e8 fc ff ff ff       	call   4 <_ZNSt8__detail20_Prime_rehash_policyC1Ef+0x4>
   8:	05 01 00 00 00       	add    $0x1,%eax
   d:	8b 45 08             	mov    0x8(%ebp),%eax
  10:	d9 45 0c             	flds   0xc(%ebp)
  13:	d9 18                	fstps  (%eax)
  15:	8b 45 08             	mov    0x8(%ebp),%eax
  18:	c7 40 04 00 00 00 00 	movl   $0x0,0x4(%eax)
  1f:	90                   	nop
  20:	5d                   	pop    %ebp
  21:	c3                   	ret    

Disassembly of section .text._ZNKSt8__detail20_Prime_rehash_policy19_M_bkt_for_elementsEj:

00000000 <_ZNKSt8__detail20_Prime_rehash_policy19_M_bkt_for_elementsEj>:
   0:	55                   	push   %ebp
   1:	89 e5                	mov    %esp,%ebp
   3:	83 ec 10             	sub    $0x10,%esp
   6:	e8 fc ff ff ff       	call   7 <_ZNKSt8__detail20_Prime_rehash_policy19_M_bkt_for_elementsEj+0x7>
   b:	05 01 00 00 00       	add    $0x1,%eax
  10:	8b 45 0c             	mov    0xc(%ebp),%eax
  13:	ba 00 00 00 00       	mov    $0x0,%edx
  18:	89 45 f0             	mov    %eax,-0x10(%ebp)
  1b:	89 55 f4             	mov    %edx,-0xc(%ebp)
  1e:	df 6d f0             	fildll -0x10(%ebp)
  21:	8b 45 08             	mov    0x8(%ebp),%eax
  24:	d9 00                	flds   (%eax)
  26:	de f9                	fdivrp %st,%st(1)
  28:	d9 7d fe             	fnstcw -0x2(%ebp)
  2b:	0f b7 45 fe          	movzwl -0x2(%ebp),%eax
  2f:	80 e4 f3             	and    $0xf3,%ah
  32:	80 cc 08             	or     $0x8,%ah
  35:	66 89 45 fc          	mov    %ax,-0x4(%ebp)
  39:	d9 6d fc             	fldcw  -0x4(%ebp)
  3c:	d9 fc                	frndint 
  3e:	d9 6d fe             	fldcw  -0x2(%ebp)
  41:	d9 7d fe             	fnstcw -0x2(%ebp)
  44:	0f b7 45 fe          	movzwl -0x2(%ebp),%eax
  48:	80 cc 0c             	or     $0xc,%ah
  4b:	66 89 45 fa          	mov    %ax,-0x6(%ebp)
  4f:	d9 6d fa             	fldcw  -0x6(%ebp)
  52:	df 7d f0             	fistpll -0x10(%ebp)
  55:	d9 6d fe             	fldcw  -0x2(%ebp)
  58:	8b 45 f0             	mov    -0x10(%ebp),%eax
  5b:	c9                   	leave  
  5c:	c3                   	ret    

Disassembly of section .text._ZNKSt8__detail20_Prime_rehash_policy8_M_stateEv:

00000000 <_ZNKSt8__detail20_Prime_rehash_policy8_M_stateEv>:
   0:	55                   	push   %ebp
   1:	89 e5                	mov    %esp,%ebp
   3:	e8 fc ff ff ff       	call   4 <_ZNKSt8__detail20_Prime_rehash_policy8_M_stateEv+0x4>
   8:	05 01 00 00 00       	add    $0x1,%eax
   d:	8b 45 08             	mov    0x8(%ebp),%eax
  10:	8b 40 04             	mov    0x4(%eax),%eax
  13:	5d                   	pop    %ebp
  14:	c3                   	ret    

Disassembly of section .text._ZNSt8__detail20_Prime_rehash_policy8_M_resetEv:

00000000 <_ZNSt8__detail20_Prime_rehash_policy8_M_resetEv>:
   0:	55                   	push   %ebp
   1:	89 e5                	mov    %esp,%ebp
   3:	e8 fc ff ff ff       	call   4 <_ZNSt8__detail20_Prime_rehash_policy8_M_resetEv+0x4>
   8:	05 01 00 00 00       	add    $0x1,%eax
   d:	8b 45 08             	mov    0x8(%ebp),%eax
  10:	c7 40 04 00 00 00 00 	movl   $0x0,0x4(%eax)
  17:	90                   	nop
  18:	5d                   	pop    %ebp
  19:	c3                   	ret    

Disassembly of section .text._ZNSt8__detail20_Prime_rehash_policy8_M_resetEj:

00000000 <_ZNSt8__detail20_Prime_rehash_policy8_M_resetEj>:
   0:	55                   	push   %ebp
   1:	89 e5                	mov    %esp,%ebp
   3:	e8 fc ff ff ff       	call   4 <_ZNSt8__detail20_Prime_rehash_policy8_M_resetEj+0x4>
   8:	05 01 00 00 00       	add    $0x1,%eax
   d:	8b 45 08             	mov    0x8(%ebp),%eax
  10:	8b 55 0c             	mov    0xc(%ebp),%edx
  13:	89 50 04             	mov    %edx,0x4(%eax)
  16:	90                   	nop
  17:	5d                   	pop    %ebp
  18:	c3                   	ret    

Disassembly of section .text._ZSt3minIjERKT_S2_S2_:

00000000 <_ZSt3minIjERKT_S2_S2_>:
   0:	55                   	push   %ebp
   1:	89 e5                	mov    %esp,%ebp
   3:	e8 fc ff ff ff       	call   4 <_ZSt3minIjERKT_S2_S2_+0x4>
   8:	05 01 00 00 00       	add    $0x1,%eax
   d:	8b 45 0c             	mov    0xc(%ebp),%eax
  10:	8b 10                	mov    (%eax),%edx
  12:	8b 45 08             	mov    0x8(%ebp),%eax
  15:	8b 00                	mov    (%eax),%eax
  17:	39 c2                	cmp    %eax,%edx
  19:	73 05                	jae    20 <_ZSt3minIjERKT_S2_S2_+0x20>
  1b:	8b 45 0c             	mov    0xc(%ebp),%eax
  1e:	eb 03                	jmp    23 <_ZSt3minIjERKT_S2_S2_+0x23>
  20:	8b 45 08             	mov    0x8(%ebp),%eax
  23:	5d                   	pop    %ebp
  24:	c3                   	ret    

Disassembly of section .text._ZN7Vector2C2Eff:

00000000 <_ZN7Vector2C1Eff>:
   0:	55                   	push   %ebp
   1:	89 e5                	mov    %esp,%ebp
   3:	e8 fc ff ff ff       	call   4 <_ZN7Vector2C1Eff+0x4>
   8:	05 01 00 00 00       	add    $0x1,%eax
   d:	8b 45 08             	mov    0x8(%ebp),%eax
  10:	d9 45 0c             	flds   0xc(%ebp)
  13:	d9 18                	fstps  (%eax)
  15:	8b 45 08             	mov    0x8(%ebp),%eax
  18:	d9 45 10             	flds   0x10(%ebp)
  1b:	d9 58 04             	fstps  0x4(%eax)
  1e:	90                   	nop
  1f:	5d                   	pop    %ebp
  20:	c3                   	ret    

Disassembly of section .text._ZNSt8__detail21_Hashtable_ebo_helperILi0ESaINS_10_Hash_nodeISt4pairIKNSt7__cxx1112basic_stringIcSt11char_traitsIcESaIcEEEiELb1EEEELb1EEC2Ev:

00000000 <_ZNSt8__detail21_Hashtable_ebo_helperILi0ESaINS_10_Hash_nodeISt4pairIKNSt7__cxx1112basic_stringIcSt11char_traitsIcESaIcEEEiELb1EEEELb1EEC1Ev>:
   0:	55                   	push   %ebp
   1:	89 e5                	mov    %esp,%ebp
   3:	83 ec 08             	sub    $0x8,%esp
   6:	e8 fc ff ff ff       	call   7 <_ZNSt8__detail21_Hashtable_ebo_helperILi0ESaINS_10_Hash_nodeISt4pairIKNSt7__cxx1112basic_stringIcSt11char_traitsIcESaIcEEEiELb1EEEELb1EEC1Ev+0x7>
   b:	05 01 00 00 00       	add    $0x1,%eax
  10:	83 ec 0c             	sub    $0xc,%esp
  13:	ff 75 08             	pushl  0x8(%ebp)
  16:	e8 fc ff ff ff       	call   17 <_ZNSt8__detail21_Hashtable_ebo_helperILi0ESaINS_10_Hash_nodeISt4pairIKNSt7__cxx1112basic_stringIcSt11char_traitsIcESaIcEEEiELb1EEEELb1EEC1Ev+0x17>
  1b:	83 c4 10             	add    $0x10,%esp
  1e:	90                   	nop
  1f:	c9                   	leave  
  20:	c3                   	ret    

Disassembly of section .text._ZNSt8__detail21_Hashtable_ebo_helperILi0ESaINS_10_Hash_nodeISt4pairIKNSt7__cxx1112basic_stringIcSt11char_traitsIcESaIcEEEiELb1EEEELb1EED2Ev:

00000000 <_ZNSt8__detail21_Hashtable_ebo_helperILi0ESaINS_10_Hash_nodeISt4pairIKNSt7__cxx1112basic_stringIcSt11char_traitsIcESaIcEEEiELb1EEEELb1EED1Ev>:
   0:	55                   	push   %ebp
   1:	89 e5                	mov    %esp,%ebp
   3:	83 ec 08             	sub    $0x8,%esp
   6:	e8 fc ff ff ff       	call   7 <_ZNSt8__detail21_Hashtable_ebo_helperILi0ESaINS_10_Hash_nodeISt4pairIKNSt7__cxx1112basic_stringIcSt11char_traitsIcESaIcEEEiELb1EEEELb1EED1Ev+0x7>
   b:	05 01 00 00 00       	add    $0x1,%eax
  10:	83 ec 0c             	sub    $0xc,%esp
  13:	ff 75 08             	pushl  0x8(%ebp)
  16:	e8 fc ff ff ff       	call   17 <_ZNSt8__detail21_Hashtable_ebo_helperILi0ESaINS_10_Hash_nodeISt4pairIKNSt7__cxx1112basic_stringIcSt11char_traitsIcESaIcEEEiELb1EEEELb1EED1Ev+0x17>
  1b:	83 c4 10             	add    $0x10,%esp
  1e:	90                   	nop
  1f:	c9                   	leave  
  20:	c3                   	ret    

Disassembly of section .text._ZNSt8__detail16_Hashtable_allocISaINS_10_Hash_nodeISt4pairIKNSt7__cxx1112basic_stringIcSt11char_traitsIcESaIcEEEiELb1EEEEEC2Ev:

00000000 <_ZNSt8__detail16_Hashtable_allocISaINS_10_Hash_nodeISt4pairIKNSt7__cxx1112basic_stringIcSt11char_traitsIcESaIcEEEiELb1EEEEEC1Ev>:
   0:	55                   	push   %ebp
   1:	89 e5                	mov    %esp,%ebp
   3:	83 ec 08             	sub    $0x8,%esp
   6:	e8 fc ff ff ff       	call   7 <_ZNSt8__detail16_Hashtable_allocISaINS_10_Hash_nodeISt4pairIKNSt7__cxx1112basic_stringIcSt11char_traitsIcESaIcEEEiELb1EEEEEC1Ev+0x7>
   b:	05 01 00 00 00       	add    $0x1,%eax
  10:	83 ec 0c             	sub    $0xc,%esp
  13:	ff 75 08             	pushl  0x8(%ebp)
  16:	e8 fc ff ff ff       	call   17 <_ZNSt8__detail16_Hashtable_allocISaINS_10_Hash_nodeISt4pairIKNSt7__cxx1112basic_stringIcSt11char_traitsIcESaIcEEEiELb1EEEEEC1Ev+0x17>
  1b:	83 c4 10             	add    $0x10,%esp
  1e:	90                   	nop
  1f:	c9                   	leave  
  20:	c3                   	ret    

Disassembly of section .text._ZNSt8__detail16_Hashtable_allocISaINS_10_Hash_nodeISt4pairIKNSt7__cxx1112basic_stringIcSt11char_traitsIcESaIcEEEiELb1EEEEED2Ev:

00000000 <_ZNSt8__detail16_Hashtable_allocISaINS_10_Hash_nodeISt4pairIKNSt7__cxx1112basic_stringIcSt11char_traitsIcESaIcEEEiELb1EEEEED1Ev>:
   0:	55                   	push   %ebp
   1:	89 e5                	mov    %esp,%ebp
   3:	83 ec 08             	sub    $0x8,%esp
   6:	e8 fc ff ff ff       	call   7 <_ZNSt8__detail16_Hashtable_allocISaINS_10_Hash_nodeISt4pairIKNSt7__cxx1112basic_stringIcSt11char_traitsIcESaIcEEEiELb1EEEEED1Ev+0x7>
   b:	05 01 00 00 00       	add    $0x1,%eax
  10:	83 ec 0c             	sub    $0xc,%esp
  13:	ff 75 08             	pushl  0x8(%ebp)
  16:	e8 fc ff ff ff       	call   17 <_ZNSt8__detail16_Hashtable_allocISaINS_10_Hash_nodeISt4pairIKNSt7__cxx1112basic_stringIcSt11char_traitsIcESaIcEEEiELb1EEEEED1Ev+0x17>
  1b:	83 c4 10             	add    $0x10,%esp
  1e:	90                   	nop
  1f:	c9                   	leave  
  20:	c3                   	ret    

Disassembly of section .text._ZNSt10_HashtableINSt7__cxx1112basic_stringIcSt11char_traitsIcESaIcEEESt4pairIKS5_iESaIS8_ENSt8__detail10_Select1stESt8equal_toIS5_ESt4hashIS5_ENSA_18_Mod_range_hashingENSA_20_Default_ranged_hashENSA_20_Prime_rehash_policyENSA_17_Hashtable_traitsILb1ELb0ELb1EEEEC2Ev:

00000000 <_ZNSt10_HashtableINSt7__cxx1112basic_stringIcSt11char_traitsIcESaIcEEESt4pairIKS5_iESaIS8_ENSt8__detail10_Select1stESt8equal_toIS5_ESt4hashIS5_ENSA_18_Mod_range_hashingENSA_20_Default_ranged_hashENSA_20_Prime_rehash_policyENSA_17_Hashtable_traitsILb1ELb0ELb1EEEEC1Ev>:
   0:	55                   	push   %ebp
   1:	89 e5                	mov    %esp,%ebp
   3:	53                   	push   %ebx
   4:	83 ec 04             	sub    $0x4,%esp
   7:	e8 fc ff ff ff       	call   8 <_ZNSt10_HashtableINSt7__cxx1112basic_stringIcSt11char_traitsIcESaIcEEESt4pairIKS5_iESaIS8_ENSt8__detail10_Select1stESt8equal_toIS5_ESt4hashIS5_ENSA_18_Mod_range_hashingENSA_20_Default_ranged_hashENSA_20_Prime_rehash_policyENSA_17_Hashtable_traitsILb1ELb0ELb1EEEEC1Ev+0x8>
   c:	81 c3 02 00 00 00    	add    $0x2,%ebx
  12:	83 ec 0c             	sub    $0xc,%esp
  15:	ff 75 08             	pushl  0x8(%ebp)
  18:	e8 fc ff ff ff       	call   19 <_ZNSt10_HashtableINSt7__cxx1112basic_stringIcSt11char_traitsIcESaIcEEESt4pairIKS5_iESaIS8_ENSt8__detail10_Select1stESt8equal_toIS5_ESt4hashIS5_ENSA_18_Mod_range_hashingENSA_20_Default_ranged_hashENSA_20_Prime_rehash_policyENSA_17_Hashtable_traitsILb1ELb0ELb1EEEEC1Ev+0x19>
  1d:	83 c4 10             	add    $0x10,%esp
  20:	8b 45 08             	mov    0x8(%ebp),%eax
  23:	8d 50 18             	lea    0x18(%eax),%edx
  26:	8b 45 08             	mov    0x8(%ebp),%eax
  29:	89 10                	mov    %edx,(%eax)
  2b:	8b 45 08             	mov    0x8(%ebp),%eax
  2e:	c7 40 04 01 00 00 00 	movl   $0x1,0x4(%eax)
  35:	8b 45 08             	mov    0x8(%ebp),%eax
  38:	83 c0 08             	add    $0x8,%eax
  3b:	83 ec 0c             	sub    $0xc,%esp
  3e:	50                   	push   %eax
  3f:	e8 fc ff ff ff       	call   40 <_ZNSt10_HashtableINSt7__cxx1112basic_stringIcSt11char_traitsIcESaIcEEESt4pairIKS5_iESaIS8_ENSt8__detail10_Select1stESt8equal_toIS5_ESt4hashIS5_ENSA_18_Mod_range_hashingENSA_20_Default_ranged_hashENSA_20_Prime_rehash_policyENSA_17_Hashtable_traitsILb1ELb0ELb1EEEEC1Ev+0x40>
  44:	83 c4 10             	add    $0x10,%esp
  47:	8b 45 08             	mov    0x8(%ebp),%eax
  4a:	c7 40 0c 00 00 00 00 	movl   $0x0,0xc(%eax)
  51:	8b 45 08             	mov    0x8(%ebp),%eax
  54:	83 c0 10             	add    $0x10,%eax
  57:	83 ec 08             	sub    $0x8,%esp
  5a:	d9 e8                	fld1   
  5c:	8d 64 24 fc          	lea    -0x4(%esp),%esp
  60:	d9 1c 24             	fstps  (%esp)
  63:	50                   	push   %eax
  64:	e8 fc ff ff ff       	call   65 <_ZNSt10_HashtableINSt7__cxx1112basic_stringIcSt11char_traitsIcESaIcEEESt4pairIKS5_iESaIS8_ENSt8__detail10_Select1stESt8equal_toIS5_ESt4hashIS5_ENSA_18_Mod_range_hashingENSA_20_Default_ranged_hashENSA_20_Prime_rehash_policyENSA_17_Hashtable_traitsILb1ELb0ELb1EEEEC1Ev+0x65>
  69:	83 c4 10             	add    $0x10,%esp
  6c:	8b 45 08             	mov    0x8(%ebp),%eax
  6f:	c7 40 18 00 00 00 00 	movl   $0x0,0x18(%eax)
  76:	90                   	nop
  77:	8b 5d fc             	mov    -0x4(%ebp),%ebx
  7a:	c9                   	leave  
  7b:	c3                   	ret    

Disassembly of section .text._ZNSt13unordered_mapINSt7__cxx1112basic_stringIcSt11char_traitsIcESaIcEEEiSt4hashIS5_ESt8equal_toIS5_ESaISt4pairIKS5_iEEEC2Ev:

00000000 <_ZNSt13unordered_mapINSt7__cxx1112basic_stringIcSt11char_traitsIcESaIcEEEiSt4hashIS5_ESt8equal_toIS5_ESaISt4pairIKS5_iEEEC1Ev>:
   0:	55                   	push   %ebp
   1:	89 e5                	mov    %esp,%ebp
   3:	83 ec 08             	sub    $0x8,%esp
   6:	e8 fc ff ff ff       	call   7 <_ZNSt13unordered_mapINSt7__cxx1112basic_stringIcSt11char_traitsIcESaIcEEEiSt4hashIS5_ESt8equal_toIS5_ESaISt4pairIKS5_iEEEC1Ev+0x7>
   b:	05 01 00 00 00       	add    $0x1,%eax
  10:	8b 45 08             	mov    0x8(%ebp),%eax
  13:	83 ec 0c             	sub    $0xc,%esp
  16:	50                   	push   %eax
  17:	e8 fc ff ff ff       	call   18 <_ZNSt13unordered_mapINSt7__cxx1112basic_stringIcSt11char_traitsIcESaIcEEEiSt4hashIS5_ESt8equal_toIS5_ESaISt4pairIKS5_iEEEC1Ev+0x18>
  1c:	83 c4 10             	add    $0x10,%esp
  1f:	90                   	nop
  20:	c9                   	leave  
  21:	c3                   	ret    

Disassembly of section .text._ZNSt13unordered_mapINSt7__cxx1112basic_stringIcSt11char_traitsIcESaIcEEEiSt4hashIS5_ESt8equal_toIS5_ESaISt4pairIKS5_iEEED2Ev:

00000000 <_ZNSt13unordered_mapINSt7__cxx1112basic_stringIcSt11char_traitsIcESaIcEEEiSt4hashIS5_ESt8equal_toIS5_ESaISt4pairIKS5_iEEED1Ev>:
   0:	55                   	push   %ebp
   1:	89 e5                	mov    %esp,%ebp
   3:	83 ec 08             	sub    $0x8,%esp
   6:	e8 fc ff ff ff       	call   7 <_ZNSt13unordered_mapINSt7__cxx1112basic_stringIcSt11char_traitsIcESaIcEEEiSt4hashIS5_ESt8equal_toIS5_ESaISt4pairIKS5_iEEED1Ev+0x7>
   b:	05 01 00 00 00       	add    $0x1,%eax
  10:	8b 45 08             	mov    0x8(%ebp),%eax
  13:	83 ec 0c             	sub    $0xc,%esp
  16:	50                   	push   %eax
  17:	e8 fc ff ff ff       	call   18 <_ZNSt13unordered_mapINSt7__cxx1112basic_stringIcSt11char_traitsIcESaIcEEEiSt4hashIS5_ESt8equal_toIS5_ESaISt4pairIKS5_iEEED1Ev+0x18>
  1c:	83 c4 10             	add    $0x10,%esp
  1f:	90                   	nop
  20:	c9                   	leave  
  21:	c3                   	ret    

Disassembly of section .text._ZNSt4pairIKNSt7__cxx1112basic_stringIcSt11char_traitsIcESaIcEEESt13unordered_mapIS5_iSt4hashIS5_ESt8equal_toIS5_ESaIS_IS6_iEEEED2Ev:

00000000 <_ZNSt4pairIKNSt7__cxx1112basic_stringIcSt11char_traitsIcESaIcEEESt13unordered_mapIS5_iSt4hashIS5_ESt8equal_toIS5_ESaIS_IS6_iEEEED1Ev>:
   0:	55                   	push   %ebp
   1:	89 e5                	mov    %esp,%ebp
   3:	53                   	push   %ebx
   4:	83 ec 04             	sub    $0x4,%esp
   7:	e8 fc ff ff ff       	call   8 <_ZNSt4pairIKNSt7__cxx1112basic_stringIcSt11char_traitsIcESaIcEEESt13unordered_mapIS5_iSt4hashIS5_ESt8equal_toIS5_ESaIS_IS6_iEEEED1Ev+0x8>
   c:	81 c3 02 00 00 00    	add    $0x2,%ebx
  12:	8b 45 08             	mov    0x8(%ebp),%eax
  15:	83 c0 18             	add    $0x18,%eax
  18:	83 ec 0c             	sub    $0xc,%esp
  1b:	50                   	push   %eax
  1c:	e8 fc ff ff ff       	call   1d <_ZNSt4pairIKNSt7__cxx1112basic_stringIcSt11char_traitsIcESaIcEEESt13unordered_mapIS5_iSt4hashIS5_ESt8equal_toIS5_ESaIS_IS6_iEEEED1Ev+0x1d>
  21:	83 c4 10             	add    $0x10,%esp
  24:	8b 45 08             	mov    0x8(%ebp),%eax
  27:	83 ec 0c             	sub    $0xc,%esp
  2a:	50                   	push   %eax
  2b:	e8 fc ff ff ff       	call   2c <_ZNSt4pairIKNSt7__cxx1112basic_stringIcSt11char_traitsIcESaIcEEESt13unordered_mapIS5_iSt4hashIS5_ESt8equal_toIS5_ESaIS_IS6_iEEEED1Ev+0x2c>
  30:	83 c4 10             	add    $0x10,%esp
  33:	90                   	nop
  34:	8b 5d fc             	mov    -0x4(%ebp),%ebx
  37:	c9                   	leave  
  38:	c3                   	ret    

Disassembly of section .text._ZNK4Item8get_nameB5cxx11Ev:

00000000 <_ZNK4Item8get_nameB5cxx11Ev>:
   0:	55                   	push   %ebp
   1:	89 e5                	mov    %esp,%ebp
   3:	e8 fc ff ff ff       	call   4 <_ZNK4Item8get_nameB5cxx11Ev+0x4>
   8:	05 01 00 00 00       	add    $0x1,%eax
   d:	8b 45 08             	mov    0x8(%ebp),%eax
  10:	5d                   	pop    %ebp
  11:	c3                   	ret    

Disassembly of section .text._ZNSt8__detail21_Hashtable_ebo_helperILi0ESaINS_10_Hash_nodeISt4pairIKNSt7__cxx1112basic_stringIcSt11char_traitsIcESaIcEEEP4ItemELb1EEEELb1EEC2Ev:

00000000 <_ZNSt8__detail21_Hashtable_ebo_helperILi0ESaINS_10_Hash_nodeISt4pairIKNSt7__cxx1112basic_stringIcSt11char_traitsIcESaIcEEEP4ItemELb1EEEELb1EEC1Ev>:
   0:	55                   	push   %ebp
   1:	89 e5                	mov    %esp,%ebp
   3:	83 ec 08             	sub    $0x8,%esp
   6:	e8 fc ff ff ff       	call   7 <_ZNSt8__detail21_Hashtable_ebo_helperILi0ESaINS_10_Hash_nodeISt4pairIKNSt7__cxx1112basic_stringIcSt11char_traitsIcESaIcEEEP4ItemELb1EEEELb1EEC1Ev+0x7>
   b:	05 01 00 00 00       	add    $0x1,%eax
  10:	83 ec 0c             	sub    $0xc,%esp
  13:	ff 75 08             	pushl  0x8(%ebp)
  16:	e8 fc ff ff ff       	call   17 <_ZNSt8__detail21_Hashtable_ebo_helperILi0ESaINS_10_Hash_nodeISt4pairIKNSt7__cxx1112basic_stringIcSt11char_traitsIcESaIcEEEP4ItemELb1EEEELb1EEC1Ev+0x17>
  1b:	83 c4 10             	add    $0x10,%esp
  1e:	90                   	nop
  1f:	c9                   	leave  
  20:	c3                   	ret    

Disassembly of section .text._ZNSt8__detail21_Hashtable_ebo_helperILi0ESaINS_10_Hash_nodeISt4pairIKNSt7__cxx1112basic_stringIcSt11char_traitsIcESaIcEEEP4ItemELb1EEEELb1EED2Ev:

00000000 <_ZNSt8__detail21_Hashtable_ebo_helperILi0ESaINS_10_Hash_nodeISt4pairIKNSt7__cxx1112basic_stringIcSt11char_traitsIcESaIcEEEP4ItemELb1EEEELb1EED1Ev>:
   0:	55                   	push   %ebp
   1:	89 e5                	mov    %esp,%ebp
   3:	83 ec 08             	sub    $0x8,%esp
   6:	e8 fc ff ff ff       	call   7 <_ZNSt8__detail21_Hashtable_ebo_helperILi0ESaINS_10_Hash_nodeISt4pairIKNSt7__cxx1112basic_stringIcSt11char_traitsIcESaIcEEEP4ItemELb1EEEELb1EED1Ev+0x7>
   b:	05 01 00 00 00       	add    $0x1,%eax
  10:	83 ec 0c             	sub    $0xc,%esp
  13:	ff 75 08             	pushl  0x8(%ebp)
  16:	e8 fc ff ff ff       	call   17 <_ZNSt8__detail21_Hashtable_ebo_helperILi0ESaINS_10_Hash_nodeISt4pairIKNSt7__cxx1112basic_stringIcSt11char_traitsIcESaIcEEEP4ItemELb1EEEELb1EED1Ev+0x17>
  1b:	83 c4 10             	add    $0x10,%esp
  1e:	90                   	nop
  1f:	c9                   	leave  
  20:	c3                   	ret    

Disassembly of section .text._ZNSt8__detail16_Hashtable_allocISaINS_10_Hash_nodeISt4pairIKNSt7__cxx1112basic_stringIcSt11char_traitsIcESaIcEEEP4ItemELb1EEEEEC2Ev:

00000000 <_ZNSt8__detail16_Hashtable_allocISaINS_10_Hash_nodeISt4pairIKNSt7__cxx1112basic_stringIcSt11char_traitsIcESaIcEEEP4ItemELb1EEEEEC1Ev>:
   0:	55                   	push   %ebp
   1:	89 e5                	mov    %esp,%ebp
   3:	83 ec 08             	sub    $0x8,%esp
   6:	e8 fc ff ff ff       	call   7 <_ZNSt8__detail16_Hashtable_allocISaINS_10_Hash_nodeISt4pairIKNSt7__cxx1112basic_stringIcSt11char_traitsIcESaIcEEEP4ItemELb1EEEEEC1Ev+0x7>
   b:	05 01 00 00 00       	add    $0x1,%eax
  10:	83 ec 0c             	sub    $0xc,%esp
  13:	ff 75 08             	pushl  0x8(%ebp)
  16:	e8 fc ff ff ff       	call   17 <_ZNSt8__detail16_Hashtable_allocISaINS_10_Hash_nodeISt4pairIKNSt7__cxx1112basic_stringIcSt11char_traitsIcESaIcEEEP4ItemELb1EEEEEC1Ev+0x17>
  1b:	83 c4 10             	add    $0x10,%esp
  1e:	90                   	nop
  1f:	c9                   	leave  
  20:	c3                   	ret    

Disassembly of section .text._ZNSt8__detail16_Hashtable_allocISaINS_10_Hash_nodeISt4pairIKNSt7__cxx1112basic_stringIcSt11char_traitsIcESaIcEEEP4ItemELb1EEEEED2Ev:

00000000 <_ZNSt8__detail16_Hashtable_allocISaINS_10_Hash_nodeISt4pairIKNSt7__cxx1112basic_stringIcSt11char_traitsIcESaIcEEEP4ItemELb1EEEEED1Ev>:
   0:	55                   	push   %ebp
   1:	89 e5                	mov    %esp,%ebp
   3:	83 ec 08             	sub    $0x8,%esp
   6:	e8 fc ff ff ff       	call   7 <_ZNSt8__detail16_Hashtable_allocISaINS_10_Hash_nodeISt4pairIKNSt7__cxx1112basic_stringIcSt11char_traitsIcESaIcEEEP4ItemELb1EEEEED1Ev+0x7>
   b:	05 01 00 00 00       	add    $0x1,%eax
  10:	83 ec 0c             	sub    $0xc,%esp
  13:	ff 75 08             	pushl  0x8(%ebp)
  16:	e8 fc ff ff ff       	call   17 <_ZNSt8__detail16_Hashtable_allocISaINS_10_Hash_nodeISt4pairIKNSt7__cxx1112basic_stringIcSt11char_traitsIcESaIcEEEP4ItemELb1EEEEED1Ev+0x17>
  1b:	83 c4 10             	add    $0x10,%esp
  1e:	90                   	nop
  1f:	c9                   	leave  
  20:	c3                   	ret    

Disassembly of section .text._ZNSt10_HashtableINSt7__cxx1112basic_stringIcSt11char_traitsIcESaIcEEESt4pairIKS5_P4ItemESaISA_ENSt8__detail10_Select1stESt8equal_toIS5_ESt4hashIS5_ENSC_18_Mod_range_hashingENSC_20_Default_ranged_hashENSC_20_Prime_rehash_policyENSC_17_Hashtable_traitsILb1ELb0ELb1EEEEC2Ev:

00000000 <_ZNSt10_HashtableINSt7__cxx1112basic_stringIcSt11char_traitsIcESaIcEEESt4pairIKS5_P4ItemESaISA_ENSt8__detail10_Select1stESt8equal_toIS5_ESt4hashIS5_ENSC_18_Mod_range_hashingENSC_20_Default_ranged_hashENSC_20_Prime_rehash_policyENSC_17_Hashtable_traitsILb1ELb0ELb1EEEEC1Ev>:
   0:	55                   	push   %ebp
   1:	89 e5                	mov    %esp,%ebp
   3:	53                   	push   %ebx
   4:	83 ec 04             	sub    $0x4,%esp
   7:	e8 fc ff ff ff       	call   8 <_ZNSt10_HashtableINSt7__cxx1112basic_stringIcSt11char_traitsIcESaIcEEESt4pairIKS5_P4ItemESaISA_ENSt8__detail10_Select1stESt8equal_toIS5_ESt4hashIS5_ENSC_18_Mod_range_hashingENSC_20_Default_ranged_hashENSC_20_Prime_rehash_policyENSC_17_Hashtable_traitsILb1ELb0ELb1EEEEC1Ev+0x8>
   c:	81 c3 02 00 00 00    	add    $0x2,%ebx
  12:	83 ec 0c             	sub    $0xc,%esp
  15:	ff 75 08             	pushl  0x8(%ebp)
  18:	e8 fc ff ff ff       	call   19 <_ZNSt10_HashtableINSt7__cxx1112basic_stringIcSt11char_traitsIcESaIcEEESt4pairIKS5_P4ItemESaISA_ENSt8__detail10_Select1stESt8equal_toIS5_ESt4hashIS5_ENSC_18_Mod_range_hashingENSC_20_Default_ranged_hashENSC_20_Prime_rehash_policyENSC_17_Hashtable_traitsILb1ELb0ELb1EEEEC1Ev+0x19>
  1d:	83 c4 10             	add    $0x10,%esp
  20:	8b 45 08             	mov    0x8(%ebp),%eax
  23:	8d 50 18             	lea    0x18(%eax),%edx
  26:	8b 45 08             	mov    0x8(%ebp),%eax
  29:	89 10                	mov    %edx,(%eax)
  2b:	8b 45 08             	mov    0x8(%ebp),%eax
  2e:	c7 40 04 01 00 00 00 	movl   $0x1,0x4(%eax)
  35:	8b 45 08             	mov    0x8(%ebp),%eax
  38:	83 c0 08             	add    $0x8,%eax
  3b:	83 ec 0c             	sub    $0xc,%esp
  3e:	50                   	push   %eax
  3f:	e8 fc ff ff ff       	call   40 <_ZNSt10_HashtableINSt7__cxx1112basic_stringIcSt11char_traitsIcESaIcEEESt4pairIKS5_P4ItemESaISA_ENSt8__detail10_Select1stESt8equal_toIS5_ESt4hashIS5_ENSC_18_Mod_range_hashingENSC_20_Default_ranged_hashENSC_20_Prime_rehash_policyENSC_17_Hashtable_traitsILb1ELb0ELb1EEEEC1Ev+0x40>
  44:	83 c4 10             	add    $0x10,%esp
  47:	8b 45 08             	mov    0x8(%ebp),%eax
  4a:	c7 40 0c 00 00 00 00 	movl   $0x0,0xc(%eax)
  51:	8b 45 08             	mov    0x8(%ebp),%eax
  54:	83 c0 10             	add    $0x10,%eax
  57:	83 ec 08             	sub    $0x8,%esp
  5a:	d9 e8                	fld1   
  5c:	8d 64 24 fc          	lea    -0x4(%esp),%esp
  60:	d9 1c 24             	fstps  (%esp)
  63:	50                   	push   %eax
  64:	e8 fc ff ff ff       	call   65 <_ZNSt10_HashtableINSt7__cxx1112basic_stringIcSt11char_traitsIcESaIcEEESt4pairIKS5_P4ItemESaISA_ENSt8__detail10_Select1stESt8equal_toIS5_ESt4hashIS5_ENSC_18_Mod_range_hashingENSC_20_Default_ranged_hashENSC_20_Prime_rehash_policyENSC_17_Hashtable_traitsILb1ELb0ELb1EEEEC1Ev+0x65>
  69:	83 c4 10             	add    $0x10,%esp
  6c:	8b 45 08             	mov    0x8(%ebp),%eax
  6f:	c7 40 18 00 00 00 00 	movl   $0x0,0x18(%eax)
  76:	90                   	nop
  77:	8b 5d fc             	mov    -0x4(%ebp),%ebx
  7a:	c9                   	leave  
  7b:	c3                   	ret    

Disassembly of section .text._ZNSt13unordered_mapINSt7__cxx1112basic_stringIcSt11char_traitsIcESaIcEEEP4ItemSt4hashIS5_ESt8equal_toIS5_ESaISt4pairIKS5_S7_EEEC2Ev:

00000000 <_ZNSt13unordered_mapINSt7__cxx1112basic_stringIcSt11char_traitsIcESaIcEEEP4ItemSt4hashIS5_ESt8equal_toIS5_ESaISt4pairIKS5_S7_EEEC1Ev>:
   0:	55                   	push   %ebp
   1:	89 e5                	mov    %esp,%ebp
   3:	83 ec 08             	sub    $0x8,%esp
   6:	e8 fc ff ff ff       	call   7 <_ZNSt13unordered_mapINSt7__cxx1112basic_stringIcSt11char_traitsIcESaIcEEEP4ItemSt4hashIS5_ESt8equal_toIS5_ESaISt4pairIKS5_S7_EEEC1Ev+0x7>
   b:	05 01 00 00 00       	add    $0x1,%eax
  10:	8b 45 08             	mov    0x8(%ebp),%eax
  13:	83 ec 0c             	sub    $0xc,%esp
  16:	50                   	push   %eax
  17:	e8 fc ff ff ff       	call   18 <_ZNSt13unordered_mapINSt7__cxx1112basic_stringIcSt11char_traitsIcESaIcEEEP4ItemSt4hashIS5_ESt8equal_toIS5_ESaISt4pairIKS5_S7_EEEC1Ev+0x18>
  1c:	83 c4 10             	add    $0x10,%esp
  1f:	90                   	nop
  20:	c9                   	leave  
  21:	c3                   	ret    

Disassembly of section .text._ZNSt13unordered_mapINSt7__cxx1112basic_stringIcSt11char_traitsIcESaIcEEEP4ItemSt4hashIS5_ESt8equal_toIS5_ESaISt4pairIKS5_S7_EEED2Ev:

00000000 <_ZNSt13unordered_mapINSt7__cxx1112basic_stringIcSt11char_traitsIcESaIcEEEP4ItemSt4hashIS5_ESt8equal_toIS5_ESaISt4pairIKS5_S7_EEED1Ev>:
   0:	55                   	push   %ebp
   1:	89 e5                	mov    %esp,%ebp
   3:	83 ec 08             	sub    $0x8,%esp
   6:	e8 fc ff ff ff       	call   7 <_ZNSt13unordered_mapINSt7__cxx1112basic_stringIcSt11char_traitsIcESaIcEEEP4ItemSt4hashIS5_ESt8equal_toIS5_ESaISt4pairIKS5_S7_EEED1Ev+0x7>
   b:	05 01 00 00 00       	add    $0x1,%eax
  10:	8b 45 08             	mov    0x8(%ebp),%eax
  13:	83 ec 0c             	sub    $0xc,%esp
  16:	50                   	push   %eax
  17:	e8 fc ff ff ff       	call   18 <_ZNSt13unordered_mapINSt7__cxx1112basic_stringIcSt11char_traitsIcESaIcEEEP4ItemSt4hashIS5_ESt8equal_toIS5_ESaISt4pairIKS5_S7_EEED1Ev+0x18>
  1c:	83 c4 10             	add    $0x10,%esp
  1f:	90                   	nop
  20:	c9                   	leave  
  21:	c3                   	ret    

Disassembly of section .text._ZNSt13unordered_mapINSt7__cxx1112basic_stringIcSt11char_traitsIcESaIcEEES_IS5_iSt4hashIS5_ESt8equal_toIS5_ESaISt4pairIKS5_iEEES7_S9_SaISA_ISB_SE_EEED2Ev:

00000000 <_ZNSt13unordered_mapINSt7__cxx1112basic_stringIcSt11char_traitsIcESaIcEEES_IS5_iSt4hashIS5_ESt8equal_toIS5_ESaISt4pairIKS5_iEEES7_S9_SaISA_ISB_SE_EEED1Ev>:
   0:	55                   	push   %ebp
   1:	89 e5                	mov    %esp,%ebp
   3:	83 ec 08             	sub    $0x8,%esp
   6:	e8 fc ff ff ff       	call   7 <_ZNSt13unordered_mapINSt7__cxx1112basic_stringIcSt11char_traitsIcESaIcEEES_IS5_iSt4hashIS5_ESt8equal_toIS5_ESaISt4pairIKS5_iEEES7_S9_SaISA_ISB_SE_EEED1Ev+0x7>
   b:	05 01 00 00 00       	add    $0x1,%eax
  10:	8b 45 08             	mov    0x8(%ebp),%eax
  13:	83 ec 0c             	sub    $0xc,%esp
  16:	50                   	push   %eax
  17:	e8 fc ff ff ff       	call   18 <_ZNSt13unordered_mapINSt7__cxx1112basic_stringIcSt11char_traitsIcESaIcEEES_IS5_iSt4hashIS5_ESt8equal_toIS5_ESaISt4pairIKS5_iEEES7_S9_SaISA_ISB_SE_EEED1Ev+0x18>
  1c:	83 c4 10             	add    $0x10,%esp
  1f:	90                   	nop
  20:	c9                   	leave  
  21:	c3                   	ret    

Disassembly of section .text._ZNSt12_Vector_baseINSt7__cxx1112basic_stringIcSt11char_traitsIcESaIcEEESaIS5_EE12_Vector_implD2Ev:

00000000 <_ZNSt12_Vector_baseINSt7__cxx1112basic_stringIcSt11char_traitsIcESaIcEEESaIS5_EE12_Vector_implD1Ev>:
   0:	55                   	push   %ebp
   1:	89 e5                	mov    %esp,%ebp
   3:	83 ec 08             	sub    $0x8,%esp
   6:	e8 fc ff ff ff       	call   7 <_ZNSt12_Vector_baseINSt7__cxx1112basic_stringIcSt11char_traitsIcESaIcEEESaIS5_EE12_Vector_implD1Ev+0x7>
   b:	05 01 00 00 00       	add    $0x1,%eax
  10:	83 ec 0c             	sub    $0xc,%esp
  13:	ff 75 08             	pushl  0x8(%ebp)
  16:	e8 fc ff ff ff       	call   17 <_ZNSt12_Vector_baseINSt7__cxx1112basic_stringIcSt11char_traitsIcESaIcEEESaIS5_EE12_Vector_implD1Ev+0x17>
  1b:	83 c4 10             	add    $0x10,%esp
  1e:	90                   	nop
  1f:	c9                   	leave  
  20:	c3                   	ret    

Disassembly of section .text._ZNSt12_Vector_baseINSt7__cxx1112basic_stringIcSt11char_traitsIcESaIcEEESaIS5_EEC2Ev:

00000000 <_ZNSt12_Vector_baseINSt7__cxx1112basic_stringIcSt11char_traitsIcESaIcEEESaIS5_EEC1Ev>:
   0:	55                   	push   %ebp
   1:	89 e5                	mov    %esp,%ebp
   3:	83 ec 08             	sub    $0x8,%esp
   6:	e8 fc ff ff ff       	call   7 <_ZNSt12_Vector_baseINSt7__cxx1112basic_stringIcSt11char_traitsIcESaIcEEESaIS5_EEC1Ev+0x7>
   b:	05 01 00 00 00       	add    $0x1,%eax
  10:	8b 45 08             	mov    0x8(%ebp),%eax
  13:	83 ec 0c             	sub    $0xc,%esp
  16:	50                   	push   %eax
  17:	e8 fc ff ff ff       	call   18 <_ZNSt12_Vector_baseINSt7__cxx1112basic_stringIcSt11char_traitsIcESaIcEEESaIS5_EEC1Ev+0x18>
  1c:	83 c4 10             	add    $0x10,%esp
  1f:	90                   	nop
  20:	c9                   	leave  
  21:	c3                   	ret    

Disassembly of section .text._ZNSt6vectorINSt7__cxx1112basic_stringIcSt11char_traitsIcESaIcEEESaIS5_EEC2Ev:

00000000 <_ZNSt6vectorINSt7__cxx1112basic_stringIcSt11char_traitsIcESaIcEEESaIS5_EEC1Ev>:
   0:	55                   	push   %ebp
   1:	89 e5                	mov    %esp,%ebp
   3:	83 ec 08             	sub    $0x8,%esp
   6:	e8 fc ff ff ff       	call   7 <_ZNSt6vectorINSt7__cxx1112basic_stringIcSt11char_traitsIcESaIcEEESaIS5_EEC1Ev+0x7>
   b:	05 01 00 00 00       	add    $0x1,%eax
  10:	8b 45 08             	mov    0x8(%ebp),%eax
  13:	83 ec 0c             	sub    $0xc,%esp
  16:	50                   	push   %eax
  17:	e8 fc ff ff ff       	call   18 <_ZNSt6vectorINSt7__cxx1112basic_stringIcSt11char_traitsIcESaIcEEESaIS5_EEC1Ev+0x18>
  1c:	83 c4 10             	add    $0x10,%esp
  1f:	90                   	nop
  20:	c9                   	leave  
  21:	c3                   	ret    

Disassembly of section .text._ZNSt13unordered_mapINSt7__cxx1112basic_stringIcSt11char_traitsIcESaIcEEEiSt4hashIS5_ESt8equal_toIS5_ESaISt4pairIKS5_iEEEaSERKSE_:

00000000 <_ZNSt13unordered_mapINSt7__cxx1112basic_stringIcSt11char_traitsIcESaIcEEEiSt4hashIS5_ESt8equal_toIS5_ESaISt4pairIKS5_iEEEaSERKSE_>:
   0:	55                   	push   %ebp
   1:	89 e5                	mov    %esp,%ebp
   3:	83 ec 08             	sub    $0x8,%esp
   6:	e8 fc ff ff ff       	call   7 <_ZNSt13unordered_mapINSt7__cxx1112basic_stringIcSt11char_traitsIcESaIcEEEiSt4hashIS5_ESt8equal_toIS5_ESaISt4pairIKS5_iEEEaSERKSE_+0x7>
   b:	05 01 00 00 00       	add    $0x1,%eax
  10:	8b 55 0c             	mov    0xc(%ebp),%edx
  13:	8b 45 08             	mov    0x8(%ebp),%eax
  16:	83 ec 08             	sub    $0x8,%esp
  19:	52                   	push   %edx
  1a:	50                   	push   %eax
  1b:	e8 fc ff ff ff       	call   1c <_ZNSt13unordered_mapINSt7__cxx1112basic_stringIcSt11char_traitsIcESaIcEEEiSt4hashIS5_ESt8equal_toIS5_ESaISt4pairIKS5_iEEEaSERKSE_+0x1c>
  20:	83 c4 10             	add    $0x10,%esp
  23:	8b 45 08             	mov    0x8(%ebp),%eax
  26:	c9                   	leave  
  27:	c3                   	ret    

Disassembly of section .text._ZN9__gnu_cxx11char_traitsIcE2eqERKcS3_:

00000000 <_ZN9__gnu_cxx11char_traitsIcE2eqERKcS3_>:
   0:	55                   	push   %ebp
   1:	89 e5                	mov    %esp,%ebp
   3:	e8 fc ff ff ff       	call   4 <_ZN9__gnu_cxx11char_traitsIcE2eqERKcS3_+0x4>
   8:	05 01 00 00 00       	add    $0x1,%eax
   d:	8b 45 08             	mov    0x8(%ebp),%eax
  10:	0f b6 10             	movzbl (%eax),%edx
  13:	8b 45 0c             	mov    0xc(%ebp),%eax
  16:	0f b6 00             	movzbl (%eax),%eax
  19:	38 c2                	cmp    %al,%dl
  1b:	0f 94 c0             	sete   %al
  1e:	5d                   	pop    %ebp
  1f:	c3                   	ret    

Disassembly of section .text._ZN9__gnu_cxx11char_traitsIcE6lengthEPKc:

00000000 <_ZN9__gnu_cxx11char_traitsIcE6lengthEPKc>:
   0:	55                   	push   %ebp
   1:	89 e5                	mov    %esp,%ebp
   3:	83 ec 28             	sub    $0x28,%esp
   6:	e8 fc ff ff ff       	call   7 <_ZN9__gnu_cxx11char_traitsIcE6lengthEPKc+0x7>
   b:	05 01 00 00 00       	add    $0x1,%eax
  10:	8b 45 08             	mov    0x8(%ebp),%eax
  13:	89 45 e4             	mov    %eax,-0x1c(%ebp)
  16:	65 a1 14 00 00 00    	mov    %gs:0x14,%eax
  1c:	89 45 f4             	mov    %eax,-0xc(%ebp)
  1f:	31 c0                	xor    %eax,%eax
  21:	c7 45 f0 00 00 00 00 	movl   $0x0,-0x10(%ebp)
  28:	c6 45 ef 00          	movb   $0x0,-0x11(%ebp)
  2c:	8b 55 e4             	mov    -0x1c(%ebp),%edx
  2f:	8b 45 f0             	mov    -0x10(%ebp),%eax
  32:	01 c2                	add    %eax,%edx
  34:	83 ec 08             	sub    $0x8,%esp
  37:	8d 45 ef             	lea    -0x11(%ebp),%eax
  3a:	50                   	push   %eax
  3b:	52                   	push   %edx
  3c:	e8 fc ff ff ff       	call   3d <_ZN9__gnu_cxx11char_traitsIcE6lengthEPKc+0x3d>
  41:	83 c4 10             	add    $0x10,%esp
  44:	83 f0 01             	xor    $0x1,%eax
  47:	84 c0                	test   %al,%al
  49:	74 06                	je     51 <_ZN9__gnu_cxx11char_traitsIcE6lengthEPKc+0x51>
  4b:	83 45 f0 01          	addl   $0x1,-0x10(%ebp)
  4f:	eb d7                	jmp    28 <_ZN9__gnu_cxx11char_traitsIcE6lengthEPKc+0x28>
  51:	8b 45 f0             	mov    -0x10(%ebp),%eax
  54:	8b 4d f4             	mov    -0xc(%ebp),%ecx
  57:	65 2b 0d 14 00 00 00 	sub    %gs:0x14,%ecx
  5e:	74 05                	je     65 <_ZN9__gnu_cxx11char_traitsIcE6lengthEPKc+0x65>
  60:	e8 fc ff ff ff       	call   61 <_ZN9__gnu_cxx11char_traitsIcE6lengthEPKc+0x61>
  65:	c9                   	leave  
  66:	c3                   	ret    

Disassembly of section .text._ZNSt7__cxx1112basic_stringIcSt11char_traitsIcESaIcEE12_Alloc_hiderD2Ev:

00000000 <_ZNSt7__cxx1112basic_stringIcSt11char_traitsIcESaIcEE12_Alloc_hiderD1Ev>:
   0:	55                   	push   %ebp
   1:	89 e5                	mov    %esp,%ebp
   3:	53                   	push   %ebx
   4:	83 ec 04             	sub    $0x4,%esp
   7:	e8 fc ff ff ff       	call   8 <_ZNSt7__cxx1112basic_stringIcSt11char_traitsIcESaIcEE12_Alloc_hiderD1Ev+0x8>
   c:	05 01 00 00 00       	add    $0x1,%eax
  11:	83 ec 0c             	sub    $0xc,%esp
  14:	ff 75 08             	pushl  0x8(%ebp)
  17:	89 c3                	mov    %eax,%ebx
  19:	e8 fc ff ff ff       	call   1a <_ZNSt7__cxx1112basic_stringIcSt11char_traitsIcESaIcEE12_Alloc_hiderD1Ev+0x1a>
  1e:	83 c4 10             	add    $0x10,%esp
  21:	90                   	nop
  22:	8b 5d fc             	mov    -0x4(%ebp),%ebx
  25:	c9                   	leave  
  26:	c3                   	ret    

Disassembly of section .text._ZSt3maxIjERKT_S2_S2_:

00000000 <_ZSt3maxIjERKT_S2_S2_>:
   0:	55                   	push   %ebp
   1:	89 e5                	mov    %esp,%ebp
   3:	e8 fc ff ff ff       	call   4 <_ZSt3maxIjERKT_S2_S2_+0x4>
   8:	05 01 00 00 00       	add    $0x1,%eax
   d:	8b 45 08             	mov    0x8(%ebp),%eax
  10:	8b 10                	mov    (%eax),%edx
  12:	8b 45 0c             	mov    0xc(%ebp),%eax
  15:	8b 00                	mov    (%eax),%eax
  17:	39 c2                	cmp    %eax,%edx
  19:	73 05                	jae    20 <_ZSt3maxIjERKT_S2_S2_+0x20>
  1b:	8b 45 0c             	mov    0xc(%ebp),%eax
  1e:	eb 03                	jmp    23 <_ZSt3maxIjERKT_S2_S2_+0x23>
  20:	8b 45 08             	mov    0x8(%ebp),%eax
  23:	5d                   	pop    %ebp
  24:	c3                   	ret    

Disassembly of section .text._ZNSaINSt8__detail10_Hash_nodeISt4pairIKNSt7__cxx1112basic_stringIcSt11char_traitsIcESaIcEEEiELb1EEEEC2Ev:

00000000 <_ZNSaINSt8__detail10_Hash_nodeISt4pairIKNSt7__cxx1112basic_stringIcSt11char_traitsIcESaIcEEEiELb1EEEEC1Ev>:
   0:	55                   	push   %ebp
   1:	89 e5                	mov    %esp,%ebp
   3:	83 ec 08             	sub    $0x8,%esp
   6:	e8 fc ff ff ff       	call   7 <_ZNSaINSt8__detail10_Hash_nodeISt4pairIKNSt7__cxx1112basic_stringIcSt11char_traitsIcESaIcEEEiELb1EEEEC1Ev+0x7>
   b:	05 01 00 00 00       	add    $0x1,%eax
  10:	83 ec 0c             	sub    $0xc,%esp
  13:	ff 75 08             	pushl  0x8(%ebp)
  16:	e8 fc ff ff ff       	call   17 <_ZNSaINSt8__detail10_Hash_nodeISt4pairIKNSt7__cxx1112basic_stringIcSt11char_traitsIcESaIcEEEiELb1EEEEC1Ev+0x17>
  1b:	83 c4 10             	add    $0x10,%esp
  1e:	90                   	nop
  1f:	c9                   	leave  
  20:	c3                   	ret    

Disassembly of section .text._ZNSaINSt8__detail10_Hash_nodeISt4pairIKNSt7__cxx1112basic_stringIcSt11char_traitsIcESaIcEEEiELb1EEEED2Ev:

00000000 <_ZNSaINSt8__detail10_Hash_nodeISt4pairIKNSt7__cxx1112basic_stringIcSt11char_traitsIcESaIcEEEiELb1EEEED1Ev>:
   0:	55                   	push   %ebp
   1:	89 e5                	mov    %esp,%ebp
   3:	83 ec 08             	sub    $0x8,%esp
   6:	e8 fc ff ff ff       	call   7 <_ZNSaINSt8__detail10_Hash_nodeISt4pairIKNSt7__cxx1112basic_stringIcSt11char_traitsIcESaIcEEEiELb1EEEED1Ev+0x7>
   b:	05 01 00 00 00       	add    $0x1,%eax
  10:	83 ec 0c             	sub    $0xc,%esp
  13:	ff 75 08             	pushl  0x8(%ebp)
  16:	e8 fc ff ff ff       	call   17 <_ZNSaINSt8__detail10_Hash_nodeISt4pairIKNSt7__cxx1112basic_stringIcSt11char_traitsIcESaIcEEEiELb1EEEED1Ev+0x17>
  1b:	83 c4 10             	add    $0x10,%esp
  1e:	90                   	nop
  1f:	c9                   	leave  
  20:	c3                   	ret    

Disassembly of section .text._ZNSt10_HashtableINSt7__cxx1112basic_stringIcSt11char_traitsIcESaIcEEESt4pairIKS5_iESaIS8_ENSt8__detail10_Select1stESt8equal_toIS5_ESt4hashIS5_ENSA_18_Mod_range_hashingENSA_20_Default_ranged_hashENSA_20_Prime_rehash_policyENSA_17_Hashtable_traitsILb1ELb0ELb1EEEED2Ev:

00000000 <_ZNSt10_HashtableINSt7__cxx1112basic_stringIcSt11char_traitsIcESaIcEEESt4pairIKS5_iESaIS8_ENSt8__detail10_Select1stESt8equal_toIS5_ESt4hashIS5_ENSA_18_Mod_range_hashingENSA_20_Default_ranged_hashENSA_20_Prime_rehash_policyENSA_17_Hashtable_traitsILb1ELb0ELb1EEEED1Ev>:
   0:	55                   	push   %ebp
   1:	89 e5                	mov    %esp,%ebp
   3:	83 ec 08             	sub    $0x8,%esp
   6:	e8 fc ff ff ff       	call   7 <_ZNSt10_HashtableINSt7__cxx1112basic_stringIcSt11char_traitsIcESaIcEEESt4pairIKS5_iESaIS8_ENSt8__detail10_Select1stESt8equal_toIS5_ESt4hashIS5_ENSA_18_Mod_range_hashingENSA_20_Default_ranged_hashENSA_20_Prime_rehash_policyENSA_17_Hashtable_traitsILb1ELb0ELb1EEEED1Ev+0x7>
   b:	05 01 00 00 00       	add    $0x1,%eax
  10:	83 ec 0c             	sub    $0xc,%esp
  13:	ff 75 08             	pushl  0x8(%ebp)
  16:	e8 fc ff ff ff       	call   17 <_ZNSt10_HashtableINSt7__cxx1112basic_stringIcSt11char_traitsIcESaIcEEESt4pairIKS5_iESaIS8_ENSt8__detail10_Select1stESt8equal_toIS5_ESt4hashIS5_ENSA_18_Mod_range_hashingENSA_20_Default_ranged_hashENSA_20_Prime_rehash_policyENSA_17_Hashtable_traitsILb1ELb0ELb1EEEED1Ev+0x17>
  1b:	83 c4 10             	add    $0x10,%esp
  1e:	83 ec 0c             	sub    $0xc,%esp
  21:	ff 75 08             	pushl  0x8(%ebp)
  24:	e8 fc ff ff ff       	call   25 <_ZNSt10_HashtableINSt7__cxx1112basic_stringIcSt11char_traitsIcESaIcEEESt4pairIKS5_iESaIS8_ENSt8__detail10_Select1stESt8equal_toIS5_ESt4hashIS5_ENSA_18_Mod_range_hashingENSA_20_Default_ranged_hashENSA_20_Prime_rehash_policyENSA_17_Hashtable_traitsILb1ELb0ELb1EEEED1Ev+0x25>
  29:	83 c4 10             	add    $0x10,%esp
  2c:	83 ec 0c             	sub    $0xc,%esp
  2f:	ff 75 08             	pushl  0x8(%ebp)
  32:	e8 fc ff ff ff       	call   33 <_ZNSt10_HashtableINSt7__cxx1112basic_stringIcSt11char_traitsIcESaIcEEESt4pairIKS5_iESaIS8_ENSt8__detail10_Select1stESt8equal_toIS5_ESt4hashIS5_ENSA_18_Mod_range_hashingENSA_20_Default_ranged_hashENSA_20_Prime_rehash_policyENSA_17_Hashtable_traitsILb1ELb0ELb1EEEED1Ev+0x33>
  37:	83 c4 10             	add    $0x10,%esp
  3a:	90                   	nop
  3b:	c9                   	leave  
  3c:	c3                   	ret    

Disassembly of section .text._ZNSt13unordered_mapINSt7__cxx1112basic_stringIcSt11char_traitsIcESaIcEEEiSt4hashIS5_ESt8equal_toIS5_ESaISt4pairIKS5_iEEEC2ERKSE_:

00000000 <_ZNSt13unordered_mapINSt7__cxx1112basic_stringIcSt11char_traitsIcESaIcEEEiSt4hashIS5_ESt8equal_toIS5_ESaISt4pairIKS5_iEEEC1ERKSE_>:
   0:	55                   	push   %ebp
   1:	89 e5                	mov    %esp,%ebp
   3:	83 ec 08             	sub    $0x8,%esp
   6:	e8 fc ff ff ff       	call   7 <_ZNSt13unordered_mapINSt7__cxx1112basic_stringIcSt11char_traitsIcESaIcEEEiSt4hashIS5_ESt8equal_toIS5_ESaISt4pairIKS5_iEEEC1ERKSE_+0x7>
   b:	05 01 00 00 00       	add    $0x1,%eax
  10:	8b 45 08             	mov    0x8(%ebp),%eax
  13:	8b 55 0c             	mov    0xc(%ebp),%edx
  16:	83 ec 08             	sub    $0x8,%esp
  19:	52                   	push   %edx
  1a:	50                   	push   %eax
  1b:	e8 fc ff ff ff       	call   1c <_ZNSt13unordered_mapINSt7__cxx1112basic_stringIcSt11char_traitsIcESaIcEEEiSt4hashIS5_ESt8equal_toIS5_ESaISt4pairIKS5_iEEEC1ERKSE_+0x1c>
  20:	83 c4 10             	add    $0x10,%esp
  23:	90                   	nop
  24:	c9                   	leave  
  25:	c3                   	ret    

Disassembly of section .text._ZNSt4pairIKNSt7__cxx1112basic_stringIcSt11char_traitsIcESaIcEEESt13unordered_mapIS5_iSt4hashIS5_ESt8equal_toIS5_ESaIS_IS6_iEEEEC2IRA12_KcLb1EEEOT_RKSE_:

00000000 <_ZNSt4pairIKNSt7__cxx1112basic_stringIcSt11char_traitsIcESaIcEEESt13unordered_mapIS5_iSt4hashIS5_ESt8equal_toIS5_ESaIS_IS6_iEEEEC1IRA12_KcLb1EEEOT_RKSE_>:
   0:	55                   	push   %ebp
   1:	89 e5                	mov    %esp,%ebp
   3:	57                   	push   %edi
   4:	56                   	push   %esi
   5:	53                   	push   %ebx
   6:	83 ec 2c             	sub    $0x2c,%esp
   9:	e8 fc ff ff ff       	call   a <_ZNSt4pairIKNSt7__cxx1112basic_stringIcSt11char_traitsIcESaIcEEESt13unordered_mapIS5_iSt4hashIS5_ESt8equal_toIS5_ESaIS_IS6_iEEEEC1IRA12_KcLb1EEEOT_RKSE_+0xa>
   e:	81 c6 02 00 00 00    	add    $0x2,%esi
  14:	8b 45 08             	mov    0x8(%ebp),%eax
  17:	89 45 d4             	mov    %eax,-0x2c(%ebp)
  1a:	8b 45 0c             	mov    0xc(%ebp),%eax
  1d:	89 45 d0             	mov    %eax,-0x30(%ebp)
  20:	8b 45 10             	mov    0x10(%ebp),%eax
  23:	89 45 cc             	mov    %eax,-0x34(%ebp)
  26:	65 a1 14 00 00 00    	mov    %gs:0x14,%eax
  2c:	89 45 e4             	mov    %eax,-0x1c(%ebp)
  2f:	31 c0                	xor    %eax,%eax
  31:	8b 7d d4             	mov    -0x2c(%ebp),%edi
  34:	83 ec 0c             	sub    $0xc,%esp
  37:	8d 45 e3             	lea    -0x1d(%ebp),%eax
  3a:	50                   	push   %eax
  3b:	89 f3                	mov    %esi,%ebx
  3d:	e8 fc ff ff ff       	call   3e <_ZNSt4pairIKNSt7__cxx1112basic_stringIcSt11char_traitsIcESaIcEEESt13unordered_mapIS5_iSt4hashIS5_ESt8equal_toIS5_ESaIS_IS6_iEEEEC1IRA12_KcLb1EEEOT_RKSE_+0x3e>
  42:	83 c4 10             	add    $0x10,%esp
  45:	83 ec 0c             	sub    $0xc,%esp
  48:	ff 75 d0             	pushl  -0x30(%ebp)
  4b:	e8 fc ff ff ff       	call   4c <_ZNSt4pairIKNSt7__cxx1112basic_stringIcSt11char_traitsIcESaIcEEESt13unordered_mapIS5_iSt4hashIS5_ESt8equal_toIS5_ESaIS_IS6_iEEEEC1IRA12_KcLb1EEEOT_RKSE_+0x4c>
  50:	83 c4 10             	add    $0x10,%esp
  53:	83 ec 04             	sub    $0x4,%esp
  56:	8d 55 e3             	lea    -0x1d(%ebp),%edx
  59:	52                   	push   %edx
  5a:	50                   	push   %eax
  5b:	57                   	push   %edi
  5c:	e8 fc ff ff ff       	call   5d <_ZNSt4pairIKNSt7__cxx1112basic_stringIcSt11char_traitsIcESaIcEEESt13unordered_mapIS5_iSt4hashIS5_ESt8equal_toIS5_ESaIS_IS6_iEEEEC1IRA12_KcLb1EEEOT_RKSE_+0x5d>
  61:	83 c4 10             	add    $0x10,%esp
  64:	83 ec 0c             	sub    $0xc,%esp
  67:	8d 45 e3             	lea    -0x1d(%ebp),%eax
  6a:	50                   	push   %eax
  6b:	89 f3                	mov    %esi,%ebx
  6d:	e8 fc ff ff ff       	call   6e <_ZNSt4pairIKNSt7__cxx1112basic_stringIcSt11char_traitsIcESaIcEEESt13unordered_mapIS5_iSt4hashIS5_ESt8equal_toIS5_ESaIS_IS6_iEEEEC1IRA12_KcLb1EEEOT_RKSE_+0x6e>
  72:	83 c4 10             	add    $0x10,%esp
  75:	8b 45 d4             	mov    -0x2c(%ebp),%eax
  78:	83 c0 18             	add    $0x18,%eax
  7b:	83 ec 08             	sub    $0x8,%esp
  7e:	ff 75 cc             	pushl  -0x34(%ebp)
  81:	50                   	push   %eax
  82:	e8 fc ff ff ff       	call   83 <_ZNSt4pairIKNSt7__cxx1112basic_stringIcSt11char_traitsIcESaIcEEESt13unordered_mapIS5_iSt4hashIS5_ESt8equal_toIS5_ESaIS_IS6_iEEEEC1IRA12_KcLb1EEEOT_RKSE_+0x83>
  87:	83 c4 10             	add    $0x10,%esp
  8a:	90                   	nop
  8b:	8b 45 e4             	mov    -0x1c(%ebp),%eax
  8e:	65 2b 05 14 00 00 00 	sub    %gs:0x14,%eax
  95:	74 47                	je     de <_ZNSt4pairIKNSt7__cxx1112basic_stringIcSt11char_traitsIcESaIcEEESt13unordered_mapIS5_iSt4hashIS5_ESt8equal_toIS5_ESaIS_IS6_iEEEEC1IRA12_KcLb1EEEOT_RKSE_+0xde>
  97:	eb 40                	jmp    d9 <_ZNSt4pairIKNSt7__cxx1112basic_stringIcSt11char_traitsIcESaIcEEESt13unordered_mapIS5_iSt4hashIS5_ESt8equal_toIS5_ESaIS_IS6_iEEEEC1IRA12_KcLb1EEEOT_RKSE_+0xd9>
  99:	89 c7                	mov    %eax,%edi
  9b:	83 ec 0c             	sub    $0xc,%esp
  9e:	8d 45 e3             	lea    -0x1d(%ebp),%eax
  a1:	50                   	push   %eax
  a2:	89 f3                	mov    %esi,%ebx
  a4:	e8 fc ff ff ff       	call   a5 <_ZNSt4pairIKNSt7__cxx1112basic_stringIcSt11char_traitsIcESaIcEEESt13unordered_mapIS5_iSt4hashIS5_ESt8equal_toIS5_ESaIS_IS6_iEEEEC1IRA12_KcLb1EEEOT_RKSE_+0xa5>
  a9:	83 c4 10             	add    $0x10,%esp
  ac:	89 f8                	mov    %edi,%eax
  ae:	83 ec 0c             	sub    $0xc,%esp
  b1:	50                   	push   %eax
  b2:	89 f3                	mov    %esi,%ebx
  b4:	e8 fc ff ff ff       	call   b5 <_ZNSt4pairIKNSt7__cxx1112basic_stringIcSt11char_traitsIcESaIcEEESt13unordered_mapIS5_iSt4hashIS5_ESt8equal_toIS5_ESaIS_IS6_iEEEEC1IRA12_KcLb1EEEOT_RKSE_+0xb5>
  b9:	89 c7                	mov    %eax,%edi
  bb:	8b 45 d4             	mov    -0x2c(%ebp),%eax
  be:	83 ec 0c             	sub    $0xc,%esp
  c1:	50                   	push   %eax
  c2:	89 f3                	mov    %esi,%ebx
  c4:	e8 fc ff ff ff       	call   c5 <_ZNSt4pairIKNSt7__cxx1112basic_stringIcSt11char_traitsIcESaIcEEESt13unordered_mapIS5_iSt4hashIS5_ESt8equal_toIS5_ESaIS_IS6_iEEEEC1IRA12_KcLb1EEEOT_RKSE_+0xc5>
  c9:	83 c4 10             	add    $0x10,%esp
  cc:	89 f8                	mov    %edi,%eax
  ce:	83 ec 0c             	sub    $0xc,%esp
  d1:	50                   	push   %eax
  d2:	89 f3                	mov    %esi,%ebx
  d4:	e8 fc ff ff ff       	call   d5 <_ZNSt4pairIKNSt7__cxx1112basic_stringIcSt11char_traitsIcESaIcEEESt13unordered_mapIS5_iSt4hashIS5_ESt8equal_toIS5_ESaIS_IS6_iEEEEC1IRA12_KcLb1EEEOT_RKSE_+0xd5>
  d9:	e8 fc ff ff ff       	call   da <_ZNSt4pairIKNSt7__cxx1112basic_stringIcSt11char_traitsIcESaIcEEESt13unordered_mapIS5_iSt4hashIS5_ESt8equal_toIS5_ESaIS_IS6_iEEEEC1IRA12_KcLb1EEEOT_RKSE_+0xda>
  de:	8d 65 f4             	lea    -0xc(%ebp),%esp
  e1:	5b                   	pop    %ebx
  e2:	5e                   	pop    %esi
  e3:	5f                   	pop    %edi
  e4:	5d                   	pop    %ebp
  e5:	c3                   	ret    

Disassembly of section .text._ZNSt4pairIKNSt7__cxx1112basic_stringIcSt11char_traitsIcESaIcEEESt13unordered_mapIS5_iSt4hashIS5_ESt8equal_toIS5_ESaIS_IS6_iEEEEC2IRA8_KcLb1EEEOT_RKSE_:

00000000 <_ZNSt4pairIKNSt7__cxx1112basic_stringIcSt11char_traitsIcESaIcEEESt13unordered_mapIS5_iSt4hashIS5_ESt8equal_toIS5_ESaIS_IS6_iEEEEC1IRA8_KcLb1EEEOT_RKSE_>:
   0:	55                   	push   %ebp
   1:	89 e5                	mov    %esp,%ebp
   3:	57                   	push   %edi
   4:	56                   	push   %esi
   5:	53                   	push   %ebx
   6:	83 ec 2c             	sub    $0x2c,%esp
   9:	e8 fc ff ff ff       	call   a <_ZNSt4pairIKNSt7__cxx1112basic_stringIcSt11char_traitsIcESaIcEEESt13unordered_mapIS5_iSt4hashIS5_ESt8equal_toIS5_ESaIS_IS6_iEEEEC1IRA8_KcLb1EEEOT_RKSE_+0xa>
   e:	81 c6 02 00 00 00    	add    $0x2,%esi
  14:	8b 45 08             	mov    0x8(%ebp),%eax
  17:	89 45 d4             	mov    %eax,-0x2c(%ebp)
  1a:	8b 45 0c             	mov    0xc(%ebp),%eax
  1d:	89 45 d0             	mov    %eax,-0x30(%ebp)
  20:	8b 45 10             	mov    0x10(%ebp),%eax
  23:	89 45 cc             	mov    %eax,-0x34(%ebp)
  26:	65 a1 14 00 00 00    	mov    %gs:0x14,%eax
  2c:	89 45 e4             	mov    %eax,-0x1c(%ebp)
  2f:	31 c0                	xor    %eax,%eax
  31:	8b 7d d4             	mov    -0x2c(%ebp),%edi
  34:	83 ec 0c             	sub    $0xc,%esp
  37:	8d 45 e3             	lea    -0x1d(%ebp),%eax
  3a:	50                   	push   %eax
  3b:	89 f3                	mov    %esi,%ebx
  3d:	e8 fc ff ff ff       	call   3e <_ZNSt4pairIKNSt7__cxx1112basic_stringIcSt11char_traitsIcESaIcEEESt13unordered_mapIS5_iSt4hashIS5_ESt8equal_toIS5_ESaIS_IS6_iEEEEC1IRA8_KcLb1EEEOT_RKSE_+0x3e>
  42:	83 c4 10             	add    $0x10,%esp
  45:	83 ec 0c             	sub    $0xc,%esp
  48:	ff 75 d0             	pushl  -0x30(%ebp)
  4b:	e8 fc ff ff ff       	call   4c <_ZNSt4pairIKNSt7__cxx1112basic_stringIcSt11char_traitsIcESaIcEEESt13unordered_mapIS5_iSt4hashIS5_ESt8equal_toIS5_ESaIS_IS6_iEEEEC1IRA8_KcLb1EEEOT_RKSE_+0x4c>
  50:	83 c4 10             	add    $0x10,%esp
  53:	83 ec 04             	sub    $0x4,%esp
  56:	8d 55 e3             	lea    -0x1d(%ebp),%edx
  59:	52                   	push   %edx
  5a:	50                   	push   %eax
  5b:	57                   	push   %edi
  5c:	e8 fc ff ff ff       	call   5d <_ZNSt4pairIKNSt7__cxx1112basic_stringIcSt11char_traitsIcESaIcEEESt13unordered_mapIS5_iSt4hashIS5_ESt8equal_toIS5_ESaIS_IS6_iEEEEC1IRA8_KcLb1EEEOT_RKSE_+0x5d>
  61:	83 c4 10             	add    $0x10,%esp
  64:	83 ec 0c             	sub    $0xc,%esp
  67:	8d 45 e3             	lea    -0x1d(%ebp),%eax
  6a:	50                   	push   %eax
  6b:	89 f3                	mov    %esi,%ebx
  6d:	e8 fc ff ff ff       	call   6e <_ZNSt4pairIKNSt7__cxx1112basic_stringIcSt11char_traitsIcESaIcEEESt13unordered_mapIS5_iSt4hashIS5_ESt8equal_toIS5_ESaIS_IS6_iEEEEC1IRA8_KcLb1EEEOT_RKSE_+0x6e>
  72:	83 c4 10             	add    $0x10,%esp
  75:	8b 45 d4             	mov    -0x2c(%ebp),%eax
  78:	83 c0 18             	add    $0x18,%eax
  7b:	83 ec 08             	sub    $0x8,%esp
  7e:	ff 75 cc             	pushl  -0x34(%ebp)
  81:	50                   	push   %eax
  82:	e8 fc ff ff ff       	call   83 <_ZNSt4pairIKNSt7__cxx1112basic_stringIcSt11char_traitsIcESaIcEEESt13unordered_mapIS5_iSt4hashIS5_ESt8equal_toIS5_ESaIS_IS6_iEEEEC1IRA8_KcLb1EEEOT_RKSE_+0x83>
  87:	83 c4 10             	add    $0x10,%esp
  8a:	90                   	nop
  8b:	8b 45 e4             	mov    -0x1c(%ebp),%eax
  8e:	65 2b 05 14 00 00 00 	sub    %gs:0x14,%eax
  95:	74 47                	je     de <_ZNSt4pairIKNSt7__cxx1112basic_stringIcSt11char_traitsIcESaIcEEESt13unordered_mapIS5_iSt4hashIS5_ESt8equal_toIS5_ESaIS_IS6_iEEEEC1IRA8_KcLb1EEEOT_RKSE_+0xde>
  97:	eb 40                	jmp    d9 <_ZNSt4pairIKNSt7__cxx1112basic_stringIcSt11char_traitsIcESaIcEEESt13unordered_mapIS5_iSt4hashIS5_ESt8equal_toIS5_ESaIS_IS6_iEEEEC1IRA8_KcLb1EEEOT_RKSE_+0xd9>
  99:	89 c7                	mov    %eax,%edi
  9b:	83 ec 0c             	sub    $0xc,%esp
  9e:	8d 45 e3             	lea    -0x1d(%ebp),%eax
  a1:	50                   	push   %eax
  a2:	89 f3                	mov    %esi,%ebx
  a4:	e8 fc ff ff ff       	call   a5 <_ZNSt4pairIKNSt7__cxx1112basic_stringIcSt11char_traitsIcESaIcEEESt13unordered_mapIS5_iSt4hashIS5_ESt8equal_toIS5_ESaIS_IS6_iEEEEC1IRA8_KcLb1EEEOT_RKSE_+0xa5>
  a9:	83 c4 10             	add    $0x10,%esp
  ac:	89 f8                	mov    %edi,%eax
  ae:	83 ec 0c             	sub    $0xc,%esp
  b1:	50                   	push   %eax
  b2:	89 f3                	mov    %esi,%ebx
  b4:	e8 fc ff ff ff       	call   b5 <_ZNSt4pairIKNSt7__cxx1112basic_stringIcSt11char_traitsIcESaIcEEESt13unordered_mapIS5_iSt4hashIS5_ESt8equal_toIS5_ESaIS_IS6_iEEEEC1IRA8_KcLb1EEEOT_RKSE_+0xb5>
  b9:	89 c7                	mov    %eax,%edi
  bb:	8b 45 d4             	mov    -0x2c(%ebp),%eax
  be:	83 ec 0c             	sub    $0xc,%esp
  c1:	50                   	push   %eax
  c2:	89 f3                	mov    %esi,%ebx
  c4:	e8 fc ff ff ff       	call   c5 <_ZNSt4pairIKNSt7__cxx1112basic_stringIcSt11char_traitsIcESaIcEEESt13unordered_mapIS5_iSt4hashIS5_ESt8equal_toIS5_ESaIS_IS6_iEEEEC1IRA8_KcLb1EEEOT_RKSE_+0xc5>
  c9:	83 c4 10             	add    $0x10,%esp
  cc:	89 f8                	mov    %edi,%eax
  ce:	83 ec 0c             	sub    $0xc,%esp
  d1:	50                   	push   %eax
  d2:	89 f3                	mov    %esi,%ebx
  d4:	e8 fc ff ff ff       	call   d5 <_ZNSt4pairIKNSt7__cxx1112basic_stringIcSt11char_traitsIcESaIcEEESt13unordered_mapIS5_iSt4hashIS5_ESt8equal_toIS5_ESaIS_IS6_iEEEEC1IRA8_KcLb1EEEOT_RKSE_+0xd5>
  d9:	e8 fc ff ff ff       	call   da <_ZNSt4pairIKNSt7__cxx1112basic_stringIcSt11char_traitsIcESaIcEEESt13unordered_mapIS5_iSt4hashIS5_ESt8equal_toIS5_ESaIS_IS6_iEEEEC1IRA8_KcLb1EEEOT_RKSE_+0xda>
  de:	8d 65 f4             	lea    -0xc(%ebp),%esp
  e1:	5b                   	pop    %ebx
  e2:	5e                   	pop    %esi
  e3:	5f                   	pop    %edi
  e4:	5d                   	pop    %ebp
  e5:	c3                   	ret    

Disassembly of section .text._ZNSt4pairIKNSt7__cxx1112basic_stringIcSt11char_traitsIcESaIcEEESt13unordered_mapIS5_iSt4hashIS5_ESt8equal_toIS5_ESaIS_IS6_iEEEEC2IRA6_KcLb1EEEOT_RKSE_:

00000000 <_ZNSt4pairIKNSt7__cxx1112basic_stringIcSt11char_traitsIcESaIcEEESt13unordered_mapIS5_iSt4hashIS5_ESt8equal_toIS5_ESaIS_IS6_iEEEEC1IRA6_KcLb1EEEOT_RKSE_>:
   0:	55                   	push   %ebp
   1:	89 e5                	mov    %esp,%ebp
   3:	57                   	push   %edi
   4:	56                   	push   %esi
   5:	53                   	push   %ebx
   6:	83 ec 2c             	sub    $0x2c,%esp
   9:	e8 fc ff ff ff       	call   a <_ZNSt4pairIKNSt7__cxx1112basic_stringIcSt11char_traitsIcESaIcEEESt13unordered_mapIS5_iSt4hashIS5_ESt8equal_toIS5_ESaIS_IS6_iEEEEC1IRA6_KcLb1EEEOT_RKSE_+0xa>
   e:	81 c6 02 00 00 00    	add    $0x2,%esi
  14:	8b 45 08             	mov    0x8(%ebp),%eax
  17:	89 45 d4             	mov    %eax,-0x2c(%ebp)
  1a:	8b 45 0c             	mov    0xc(%ebp),%eax
  1d:	89 45 d0             	mov    %eax,-0x30(%ebp)
  20:	8b 45 10             	mov    0x10(%ebp),%eax
  23:	89 45 cc             	mov    %eax,-0x34(%ebp)
  26:	65 a1 14 00 00 00    	mov    %gs:0x14,%eax
  2c:	89 45 e4             	mov    %eax,-0x1c(%ebp)
  2f:	31 c0                	xor    %eax,%eax
  31:	8b 7d d4             	mov    -0x2c(%ebp),%edi
  34:	83 ec 0c             	sub    $0xc,%esp
  37:	8d 45 e3             	lea    -0x1d(%ebp),%eax
  3a:	50                   	push   %eax
  3b:	89 f3                	mov    %esi,%ebx
  3d:	e8 fc ff ff ff       	call   3e <_ZNSt4pairIKNSt7__cxx1112basic_stringIcSt11char_traitsIcESaIcEEESt13unordered_mapIS5_iSt4hashIS5_ESt8equal_toIS5_ESaIS_IS6_iEEEEC1IRA6_KcLb1EEEOT_RKSE_+0x3e>
  42:	83 c4 10             	add    $0x10,%esp
  45:	83 ec 0c             	sub    $0xc,%esp
  48:	ff 75 d0             	pushl  -0x30(%ebp)
  4b:	e8 fc ff ff ff       	call   4c <_ZNSt4pairIKNSt7__cxx1112basic_stringIcSt11char_traitsIcESaIcEEESt13unordered_mapIS5_iSt4hashIS5_ESt8equal_toIS5_ESaIS_IS6_iEEEEC1IRA6_KcLb1EEEOT_RKSE_+0x4c>
  50:	83 c4 10             	add    $0x10,%esp
  53:	83 ec 04             	sub    $0x4,%esp
  56:	8d 55 e3             	lea    -0x1d(%ebp),%edx
  59:	52                   	push   %edx
  5a:	50                   	push   %eax
  5b:	57                   	push   %edi
  5c:	e8 fc ff ff ff       	call   5d <_ZNSt4pairIKNSt7__cxx1112basic_stringIcSt11char_traitsIcESaIcEEESt13unordered_mapIS5_iSt4hashIS5_ESt8equal_toIS5_ESaIS_IS6_iEEEEC1IRA6_KcLb1EEEOT_RKSE_+0x5d>
  61:	83 c4 10             	add    $0x10,%esp
  64:	83 ec 0c             	sub    $0xc,%esp
  67:	8d 45 e3             	lea    -0x1d(%ebp),%eax
  6a:	50                   	push   %eax
  6b:	89 f3                	mov    %esi,%ebx
  6d:	e8 fc ff ff ff       	call   6e <_ZNSt4pairIKNSt7__cxx1112basic_stringIcSt11char_traitsIcESaIcEEESt13unordered_mapIS5_iSt4hashIS5_ESt8equal_toIS5_ESaIS_IS6_iEEEEC1IRA6_KcLb1EEEOT_RKSE_+0x6e>
  72:	83 c4 10             	add    $0x10,%esp
  75:	8b 45 d4             	mov    -0x2c(%ebp),%eax
  78:	83 c0 18             	add    $0x18,%eax
  7b:	83 ec 08             	sub    $0x8,%esp
  7e:	ff 75 cc             	pushl  -0x34(%ebp)
  81:	50                   	push   %eax
  82:	e8 fc ff ff ff       	call   83 <_ZNSt4pairIKNSt7__cxx1112basic_stringIcSt11char_traitsIcESaIcEEESt13unordered_mapIS5_iSt4hashIS5_ESt8equal_toIS5_ESaIS_IS6_iEEEEC1IRA6_KcLb1EEEOT_RKSE_+0x83>
  87:	83 c4 10             	add    $0x10,%esp
  8a:	90                   	nop
  8b:	8b 45 e4             	mov    -0x1c(%ebp),%eax
  8e:	65 2b 05 14 00 00 00 	sub    %gs:0x14,%eax
  95:	74 47                	je     de <_ZNSt4pairIKNSt7__cxx1112basic_stringIcSt11char_traitsIcESaIcEEESt13unordered_mapIS5_iSt4hashIS5_ESt8equal_toIS5_ESaIS_IS6_iEEEEC1IRA6_KcLb1EEEOT_RKSE_+0xde>
  97:	eb 40                	jmp    d9 <_ZNSt4pairIKNSt7__cxx1112basic_stringIcSt11char_traitsIcESaIcEEESt13unordered_mapIS5_iSt4hashIS5_ESt8equal_toIS5_ESaIS_IS6_iEEEEC1IRA6_KcLb1EEEOT_RKSE_+0xd9>
  99:	89 c7                	mov    %eax,%edi
  9b:	83 ec 0c             	sub    $0xc,%esp
  9e:	8d 45 e3             	lea    -0x1d(%ebp),%eax
  a1:	50                   	push   %eax
  a2:	89 f3                	mov    %esi,%ebx
  a4:	e8 fc ff ff ff       	call   a5 <_ZNSt4pairIKNSt7__cxx1112basic_stringIcSt11char_traitsIcESaIcEEESt13unordered_mapIS5_iSt4hashIS5_ESt8equal_toIS5_ESaIS_IS6_iEEEEC1IRA6_KcLb1EEEOT_RKSE_+0xa5>
  a9:	83 c4 10             	add    $0x10,%esp
  ac:	89 f8                	mov    %edi,%eax
  ae:	83 ec 0c             	sub    $0xc,%esp
  b1:	50                   	push   %eax
  b2:	89 f3                	mov    %esi,%ebx
  b4:	e8 fc ff ff ff       	call   b5 <_ZNSt4pairIKNSt7__cxx1112basic_stringIcSt11char_traitsIcESaIcEEESt13unordered_mapIS5_iSt4hashIS5_ESt8equal_toIS5_ESaIS_IS6_iEEEEC1IRA6_KcLb1EEEOT_RKSE_+0xb5>
  b9:	89 c7                	mov    %eax,%edi
  bb:	8b 45 d4             	mov    -0x2c(%ebp),%eax
  be:	83 ec 0c             	sub    $0xc,%esp
  c1:	50                   	push   %eax
  c2:	89 f3                	mov    %esi,%ebx
  c4:	e8 fc ff ff ff       	call   c5 <_ZNSt4pairIKNSt7__cxx1112basic_stringIcSt11char_traitsIcESaIcEEESt13unordered_mapIS5_iSt4hashIS5_ESt8equal_toIS5_ESaIS_IS6_iEEEEC1IRA6_KcLb1EEEOT_RKSE_+0xc5>
  c9:	83 c4 10             	add    $0x10,%esp
  cc:	89 f8                	mov    %edi,%eax
  ce:	83 ec 0c             	sub    $0xc,%esp
  d1:	50                   	push   %eax
  d2:	89 f3                	mov    %esi,%ebx
  d4:	e8 fc ff ff ff       	call   d5 <_ZNSt4pairIKNSt7__cxx1112basic_stringIcSt11char_traitsIcESaIcEEESt13unordered_mapIS5_iSt4hashIS5_ESt8equal_toIS5_ESaIS_IS6_iEEEEC1IRA6_KcLb1EEEOT_RKSE_+0xd5>
  d9:	e8 fc ff ff ff       	call   da <_ZNSt4pairIKNSt7__cxx1112basic_stringIcSt11char_traitsIcESaIcEEESt13unordered_mapIS5_iSt4hashIS5_ESt8equal_toIS5_ESaIS_IS6_iEEEEC1IRA6_KcLb1EEEOT_RKSE_+0xda>
  de:	8d 65 f4             	lea    -0xc(%ebp),%esp
  e1:	5b                   	pop    %ebx
  e2:	5e                   	pop    %esi
  e3:	5f                   	pop    %edi
  e4:	5d                   	pop    %ebp
  e5:	c3                   	ret    

Disassembly of section .text._ZNSaISt4pairIKNSt7__cxx1112basic_stringIcSt11char_traitsIcESaIcEEESt13unordered_mapIS5_iSt4hashIS5_ESt8equal_toIS5_ESaIS_IS6_iEEEEEC2Ev:

00000000 <_ZNSaISt4pairIKNSt7__cxx1112basic_stringIcSt11char_traitsIcESaIcEEESt13unordered_mapIS5_iSt4hashIS5_ESt8equal_toIS5_ESaIS_IS6_iEEEEEC1Ev>:
   0:	55                   	push   %ebp
   1:	89 e5                	mov    %esp,%ebp
   3:	83 ec 08             	sub    $0x8,%esp
   6:	e8 fc ff ff ff       	call   7 <_ZNSaISt4pairIKNSt7__cxx1112basic_stringIcSt11char_traitsIcESaIcEEESt13unordered_mapIS5_iSt4hashIS5_ESt8equal_toIS5_ESaIS_IS6_iEEEEEC1Ev+0x7>
   b:	05 01 00 00 00       	add    $0x1,%eax
  10:	83 ec 0c             	sub    $0xc,%esp
  13:	ff 75 08             	pushl  0x8(%ebp)
  16:	e8 fc ff ff ff       	call   17 <_ZNSaISt4pairIKNSt7__cxx1112basic_stringIcSt11char_traitsIcESaIcEEESt13unordered_mapIS5_iSt4hashIS5_ESt8equal_toIS5_ESaIS_IS6_iEEEEEC1Ev+0x17>
  1b:	83 c4 10             	add    $0x10,%esp
  1e:	90                   	nop
  1f:	c9                   	leave  
  20:	c3                   	ret    

Disassembly of section .text._ZNSaISt4pairIKNSt7__cxx1112basic_stringIcSt11char_traitsIcESaIcEEESt13unordered_mapIS5_iSt4hashIS5_ESt8equal_toIS5_ESaIS_IS6_iEEEEED2Ev:

00000000 <_ZNSaISt4pairIKNSt7__cxx1112basic_stringIcSt11char_traitsIcESaIcEEESt13unordered_mapIS5_iSt4hashIS5_ESt8equal_toIS5_ESaIS_IS6_iEEEEED1Ev>:
   0:	55                   	push   %ebp
   1:	89 e5                	mov    %esp,%ebp
   3:	83 ec 08             	sub    $0x8,%esp
   6:	e8 fc ff ff ff       	call   7 <_ZNSaISt4pairIKNSt7__cxx1112basic_stringIcSt11char_traitsIcESaIcEEESt13unordered_mapIS5_iSt4hashIS5_ESt8equal_toIS5_ESaIS_IS6_iEEEEED1Ev+0x7>
   b:	05 01 00 00 00       	add    $0x1,%eax
  10:	83 ec 0c             	sub    $0xc,%esp
  13:	ff 75 08             	pushl  0x8(%ebp)
  16:	e8 fc ff ff ff       	call   17 <_ZNSaISt4pairIKNSt7__cxx1112basic_stringIcSt11char_traitsIcESaIcEEESt13unordered_mapIS5_iSt4hashIS5_ESt8equal_toIS5_ESaIS_IS6_iEEEEED1Ev+0x17>
  1b:	83 c4 10             	add    $0x10,%esp
  1e:	90                   	nop
  1f:	c9                   	leave  
  20:	c3                   	ret    

Disassembly of section .text._ZNSt13unordered_mapINSt7__cxx1112basic_stringIcSt11char_traitsIcESaIcEEES_IS5_iSt4hashIS5_ESt8equal_toIS5_ESaISt4pairIKS5_iEEES7_S9_SaISA_ISB_SE_EEEC2ESt16initializer_listISF_EjRKS7_RKS9_RKSG_:

00000000 <_ZNSt13unordered_mapINSt7__cxx1112basic_stringIcSt11char_traitsIcESaIcEEES_IS5_iSt4hashIS5_ESt8equal_toIS5_ESaISt4pairIKS5_iEEES7_S9_SaISA_ISB_SE_EEEC1ESt16initializer_listISF_EjRKS7_RKS9_RKSG_>:
   0:	55                   	push   %ebp
   1:	89 e5                	mov    %esp,%ebp
   3:	83 ec 08             	sub    $0x8,%esp
   6:	e8 fc ff ff ff       	call   7 <_ZNSt13unordered_mapINSt7__cxx1112basic_stringIcSt11char_traitsIcESaIcEEES_IS5_iSt4hashIS5_ESt8equal_toIS5_ESaISt4pairIKS5_iEEES7_S9_SaISA_ISB_SE_EEEC1ESt16initializer_listISF_EjRKS7_RKS9_RKSG_+0x7>
   b:	05 01 00 00 00       	add    $0x1,%eax
  10:	8b 45 08             	mov    0x8(%ebp),%eax
  13:	83 ec 04             	sub    $0x4,%esp
  16:	ff 75 20             	pushl  0x20(%ebp)
  19:	ff 75 1c             	pushl  0x1c(%ebp)
  1c:	ff 75 18             	pushl  0x18(%ebp)
  1f:	ff 75 14             	pushl  0x14(%ebp)
  22:	ff 75 10             	pushl  0x10(%ebp)
  25:	ff 75 0c             	pushl  0xc(%ebp)
  28:	50                   	push   %eax
  29:	e8 fc ff ff ff       	call   2a <_ZNSt13unordered_mapINSt7__cxx1112basic_stringIcSt11char_traitsIcESaIcEEES_IS5_iSt4hashIS5_ESt8equal_toIS5_ESaISt4pairIKS5_iEEES7_S9_SaISA_ISB_SE_EEEC1ESt16initializer_listISF_EjRKS7_RKS9_RKSG_+0x2a>
  2e:	83 c4 20             	add    $0x20,%esp
  31:	90                   	nop
  32:	c9                   	leave  
  33:	c3                   	ret    

Disassembly of section .text._ZNSt7__cxx1112basic_stringIcSt11char_traitsIcESaIcEEC2IS3_EEPKcRKS3_:

00000000 <_ZNSt7__cxx1112basic_stringIcSt11char_traitsIcESaIcEEC1IS3_EEPKcRKS3_>:
   0:	55                   	push   %ebp
   1:	89 e5                	mov    %esp,%ebp
   3:	57                   	push   %edi
   4:	56                   	push   %esi
   5:	53                   	push   %ebx
   6:	83 ec 0c             	sub    $0xc,%esp
   9:	e8 fc ff ff ff       	call   a <_ZNSt7__cxx1112basic_stringIcSt11char_traitsIcESaIcEEC1IS3_EEPKcRKS3_+0xa>
   e:	81 c6 02 00 00 00    	add    $0x2,%esi
  14:	8b 7d 08             	mov    0x8(%ebp),%edi
  17:	83 ec 0c             	sub    $0xc,%esp
  1a:	ff 75 08             	pushl  0x8(%ebp)
  1d:	89 f3                	mov    %esi,%ebx
  1f:	e8 fc ff ff ff       	call   20 <_ZNSt7__cxx1112basic_stringIcSt11char_traitsIcESaIcEEC1IS3_EEPKcRKS3_+0x20>
  24:	83 c4 10             	add    $0x10,%esp
  27:	83 ec 04             	sub    $0x4,%esp
  2a:	ff 75 10             	pushl  0x10(%ebp)
  2d:	50                   	push   %eax
  2e:	57                   	push   %edi
  2f:	89 f3                	mov    %esi,%ebx
  31:	e8 fc ff ff ff       	call   32 <_ZNSt7__cxx1112basic_stringIcSt11char_traitsIcESaIcEEC1IS3_EEPKcRKS3_+0x32>
  36:	83 c4 10             	add    $0x10,%esp
  39:	83 7d 0c 00          	cmpl   $0x0,0xc(%ebp)
  3d:	74 15                	je     54 <_ZNSt7__cxx1112basic_stringIcSt11char_traitsIcESaIcEEC1IS3_EEPKcRKS3_+0x54>
  3f:	83 ec 0c             	sub    $0xc,%esp
  42:	ff 75 0c             	pushl  0xc(%ebp)
  45:	e8 fc ff ff ff       	call   46 <_ZNSt7__cxx1112basic_stringIcSt11char_traitsIcESaIcEEC1IS3_EEPKcRKS3_+0x46>
  4a:	83 c4 10             	add    $0x10,%esp
  4d:	8b 55 0c             	mov    0xc(%ebp),%edx
  50:	01 d0                	add    %edx,%eax
  52:	eb 06                	jmp    5a <_ZNSt7__cxx1112basic_stringIcSt11char_traitsIcESaIcEEC1IS3_EEPKcRKS3_+0x5a>
  54:	8b 45 0c             	mov    0xc(%ebp),%eax
  57:	83 e8 01             	sub    $0x1,%eax
  5a:	83 ec 04             	sub    $0x4,%esp
  5d:	50                   	push   %eax
  5e:	ff 75 0c             	pushl  0xc(%ebp)
  61:	ff 75 08             	pushl  0x8(%ebp)
  64:	e8 fc ff ff ff       	call   65 <_ZNSt7__cxx1112basic_stringIcSt11char_traitsIcESaIcEEC1IS3_EEPKcRKS3_+0x65>
  69:	83 c4 10             	add    $0x10,%esp
  6c:	eb 1e                	jmp    8c <_ZNSt7__cxx1112basic_stringIcSt11char_traitsIcESaIcEEC1IS3_EEPKcRKS3_+0x8c>
  6e:	89 c3                	mov    %eax,%ebx
  70:	8b 45 08             	mov    0x8(%ebp),%eax
  73:	83 ec 0c             	sub    $0xc,%esp
  76:	50                   	push   %eax
  77:	e8 fc ff ff ff       	call   78 <_ZNSt7__cxx1112basic_stringIcSt11char_traitsIcESaIcEEC1IS3_EEPKcRKS3_+0x78>
  7c:	83 c4 10             	add    $0x10,%esp
  7f:	89 d8                	mov    %ebx,%eax
  81:	83 ec 0c             	sub    $0xc,%esp
  84:	50                   	push   %eax
  85:	89 f3                	mov    %esi,%ebx
  87:	e8 fc ff ff ff       	call   88 <_ZNSt7__cxx1112basic_stringIcSt11char_traitsIcESaIcEEC1IS3_EEPKcRKS3_+0x88>
  8c:	8d 65 f4             	lea    -0xc(%ebp),%esp
  8f:	5b                   	pop    %ebx
  90:	5e                   	pop    %esi
  91:	5f                   	pop    %edi
  92:	5d                   	pop    %ebp
  93:	c3                   	ret    

Disassembly of section .text._ZNSaINSt7__cxx1112basic_stringIcSt11char_traitsIcESaIcEEEEC2Ev:

00000000 <_ZNSaINSt7__cxx1112basic_stringIcSt11char_traitsIcESaIcEEEEC1Ev>:
   0:	55                   	push   %ebp
   1:	89 e5                	mov    %esp,%ebp
   3:	83 ec 08             	sub    $0x8,%esp
   6:	e8 fc ff ff ff       	call   7 <_ZNSaINSt7__cxx1112basic_stringIcSt11char_traitsIcESaIcEEEEC1Ev+0x7>
   b:	05 01 00 00 00       	add    $0x1,%eax
  10:	83 ec 0c             	sub    $0xc,%esp
  13:	ff 75 08             	pushl  0x8(%ebp)
  16:	e8 fc ff ff ff       	call   17 <_ZNSaINSt7__cxx1112basic_stringIcSt11char_traitsIcESaIcEEEEC1Ev+0x17>
  1b:	83 c4 10             	add    $0x10,%esp
  1e:	90                   	nop
  1f:	c9                   	leave  
  20:	c3                   	ret    

Disassembly of section .text._ZNSaINSt7__cxx1112basic_stringIcSt11char_traitsIcESaIcEEEED2Ev:

00000000 <_ZNSaINSt7__cxx1112basic_stringIcSt11char_traitsIcESaIcEEEED1Ev>:
   0:	55                   	push   %ebp
   1:	89 e5                	mov    %esp,%ebp
   3:	83 ec 08             	sub    $0x8,%esp
   6:	e8 fc ff ff ff       	call   7 <_ZNSaINSt7__cxx1112basic_stringIcSt11char_traitsIcESaIcEEEED1Ev+0x7>
   b:	05 01 00 00 00       	add    $0x1,%eax
  10:	83 ec 0c             	sub    $0xc,%esp
  13:	ff 75 08             	pushl  0x8(%ebp)
  16:	e8 fc ff ff ff       	call   17 <_ZNSaINSt7__cxx1112basic_stringIcSt11char_traitsIcESaIcEEEED1Ev+0x17>
  1b:	83 c4 10             	add    $0x10,%esp
  1e:	90                   	nop
  1f:	c9                   	leave  
  20:	c3                   	ret    

Disassembly of section .text._ZNSt6vectorINSt7__cxx1112basic_stringIcSt11char_traitsIcESaIcEEESaIS5_EEC2ESt16initializer_listIS5_ERKS6_:

00000000 <_ZNSt6vectorINSt7__cxx1112basic_stringIcSt11char_traitsIcESaIcEEESaIS5_EEC1ESt16initializer_listIS5_ERKS6_>:
   0:	55                   	push   %ebp
   1:	89 e5                	mov    %esp,%ebp
   3:	57                   	push   %edi
   4:	56                   	push   %esi
   5:	53                   	push   %ebx
   6:	83 ec 2c             	sub    $0x2c,%esp
   9:	e8 fc ff ff ff       	call   a <_ZNSt6vectorINSt7__cxx1112basic_stringIcSt11char_traitsIcESaIcEEESaIS5_EEC1ESt16initializer_listIS5_ERKS6_+0xa>
   e:	81 c6 02 00 00 00    	add    $0x2,%esi
  14:	8b 45 08             	mov    0x8(%ebp),%eax
  17:	89 45 d4             	mov    %eax,-0x2c(%ebp)
  1a:	8b 45 14             	mov    0x14(%ebp),%eax
  1d:	89 45 d0             	mov    %eax,-0x30(%ebp)
  20:	65 a1 14 00 00 00    	mov    %gs:0x14,%eax
  26:	89 45 e4             	mov    %eax,-0x1c(%ebp)
  29:	31 c0                	xor    %eax,%eax
  2b:	8b 45 d4             	mov    -0x2c(%ebp),%eax
  2e:	83 ec 08             	sub    $0x8,%esp
  31:	ff 75 d0             	pushl  -0x30(%ebp)
  34:	50                   	push   %eax
  35:	e8 fc ff ff ff       	call   36 <_ZNSt6vectorINSt7__cxx1112basic_stringIcSt11char_traitsIcESaIcEEESaIS5_EEC1ESt16initializer_listIS5_ERKS6_+0x36>
  3a:	83 c4 10             	add    $0x10,%esp
  3d:	83 ec 0c             	sub    $0xc,%esp
  40:	8d 45 0c             	lea    0xc(%ebp),%eax
  43:	50                   	push   %eax
  44:	e8 fc ff ff ff       	call   45 <_ZNSt6vectorINSt7__cxx1112basic_stringIcSt11char_traitsIcESaIcEEESaIS5_EEC1ESt16initializer_listIS5_ERKS6_+0x45>
  49:	83 c4 10             	add    $0x10,%esp
  4c:	89 c3                	mov    %eax,%ebx
  4e:	83 ec 0c             	sub    $0xc,%esp
  51:	8d 45 0c             	lea    0xc(%ebp),%eax
  54:	50                   	push   %eax
  55:	e8 fc ff ff ff       	call   56 <_ZNSt6vectorINSt7__cxx1112basic_stringIcSt11char_traitsIcESaIcEEESaIS5_EEC1ESt16initializer_listIS5_ERKS6_+0x56>
  5a:	83 c4 10             	add    $0x10,%esp
  5d:	57                   	push   %edi
  5e:	53                   	push   %ebx
  5f:	50                   	push   %eax
  60:	ff 75 d4             	pushl  -0x2c(%ebp)
  63:	e8 fc ff ff ff       	call   64 <_ZNSt6vectorINSt7__cxx1112basic_stringIcSt11char_traitsIcESaIcEEESaIS5_EEC1ESt16initializer_listIS5_ERKS6_+0x64>
  68:	83 c4 10             	add    $0x10,%esp
  6b:	90                   	nop
  6c:	8b 45 e4             	mov    -0x1c(%ebp),%eax
  6f:	65 2b 05 14 00 00 00 	sub    %gs:0x14,%eax
  76:	74 25                	je     9d <_ZNSt6vectorINSt7__cxx1112basic_stringIcSt11char_traitsIcESaIcEEESaIS5_EEC1ESt16initializer_listIS5_ERKS6_+0x9d>
  78:	eb 1e                	jmp    98 <_ZNSt6vectorINSt7__cxx1112basic_stringIcSt11char_traitsIcESaIcEEESaIS5_EEC1ESt16initializer_listIS5_ERKS6_+0x98>
  7a:	89 c3                	mov    %eax,%ebx
  7c:	8b 45 d4             	mov    -0x2c(%ebp),%eax
  7f:	83 ec 0c             	sub    $0xc,%esp
  82:	50                   	push   %eax
  83:	e8 fc ff ff ff       	call   84 <_ZNSt6vectorINSt7__cxx1112basic_stringIcSt11char_traitsIcESaIcEEESaIS5_EEC1ESt16initializer_listIS5_ERKS6_+0x84>
  88:	83 c4 10             	add    $0x10,%esp
  8b:	89 d8                	mov    %ebx,%eax
  8d:	83 ec 0c             	sub    $0xc,%esp
  90:	50                   	push   %eax
  91:	89 f3                	mov    %esi,%ebx
  93:	e8 fc ff ff ff       	call   94 <_ZNSt6vectorINSt7__cxx1112basic_stringIcSt11char_traitsIcESaIcEEESaIS5_EEC1ESt16initializer_listIS5_ERKS6_+0x94>
  98:	e8 fc ff ff ff       	call   99 <_ZNSt6vectorINSt7__cxx1112basic_stringIcSt11char_traitsIcESaIcEEESaIS5_EEC1ESt16initializer_listIS5_ERKS6_+0x99>
  9d:	8d 65 f4             	lea    -0xc(%ebp),%esp
  a0:	5b                   	pop    %ebx
  a1:	5e                   	pop    %esi
  a2:	5f                   	pop    %edi
  a3:	5d                   	pop    %ebp
  a4:	c3                   	ret    

Disassembly of section .text._ZNSt6vectorINSt7__cxx1112basic_stringIcSt11char_traitsIcESaIcEEESaIS5_EED2Ev:

00000000 <_ZNSt6vectorINSt7__cxx1112basic_stringIcSt11char_traitsIcESaIcEEESaIS5_EED1Ev>:
   0:	55                   	push   %ebp
   1:	89 e5                	mov    %esp,%ebp
   3:	83 ec 08             	sub    $0x8,%esp
   6:	e8 fc ff ff ff       	call   7 <_ZNSt6vectorINSt7__cxx1112basic_stringIcSt11char_traitsIcESaIcEEESaIS5_EED1Ev+0x7>
   b:	05 01 00 00 00       	add    $0x1,%eax
  10:	8b 45 08             	mov    0x8(%ebp),%eax
  13:	83 ec 0c             	sub    $0xc,%esp
  16:	50                   	push   %eax
  17:	e8 fc ff ff ff       	call   18 <_ZNSt6vectorINSt7__cxx1112basic_stringIcSt11char_traitsIcESaIcEEESaIS5_EED1Ev+0x18>
  1c:	83 c4 10             	add    $0x10,%esp
  1f:	8b 55 08             	mov    0x8(%ebp),%edx
  22:	8b 4a 04             	mov    0x4(%edx),%ecx
  25:	8b 55 08             	mov    0x8(%ebp),%edx
  28:	8b 12                	mov    (%edx),%edx
  2a:	83 ec 04             	sub    $0x4,%esp
  2d:	50                   	push   %eax
  2e:	51                   	push   %ecx
  2f:	52                   	push   %edx
  30:	e8 fc ff ff ff       	call   31 <_ZNSt6vectorINSt7__cxx1112basic_stringIcSt11char_traitsIcESaIcEEESaIS5_EED1Ev+0x31>
  35:	83 c4 10             	add    $0x10,%esp
  38:	8b 45 08             	mov    0x8(%ebp),%eax
  3b:	83 ec 0c             	sub    $0xc,%esp
  3e:	50                   	push   %eax
  3f:	e8 fc ff ff ff       	call   40 <_ZNSt6vectorINSt7__cxx1112basic_stringIcSt11char_traitsIcESaIcEEESaIS5_EED1Ev+0x40>
  44:	83 c4 10             	add    $0x10,%esp
  47:	90                   	nop
  48:	c9                   	leave  
  49:	c3                   	ret    

Disassembly of section .text._ZNSaINSt8__detail10_Hash_nodeISt4pairIKNSt7__cxx1112basic_stringIcSt11char_traitsIcESaIcEEEP4ItemELb1EEEEC2Ev:

00000000 <_ZNSaINSt8__detail10_Hash_nodeISt4pairIKNSt7__cxx1112basic_stringIcSt11char_traitsIcESaIcEEEP4ItemELb1EEEEC1Ev>:
   0:	55                   	push   %ebp
   1:	89 e5                	mov    %esp,%ebp
   3:	83 ec 08             	sub    $0x8,%esp
   6:	e8 fc ff ff ff       	call   7 <_ZNSaINSt8__detail10_Hash_nodeISt4pairIKNSt7__cxx1112basic_stringIcSt11char_traitsIcESaIcEEEP4ItemELb1EEEEC1Ev+0x7>
   b:	05 01 00 00 00       	add    $0x1,%eax
  10:	83 ec 0c             	sub    $0xc,%esp
  13:	ff 75 08             	pushl  0x8(%ebp)
  16:	e8 fc ff ff ff       	call   17 <_ZNSaINSt8__detail10_Hash_nodeISt4pairIKNSt7__cxx1112basic_stringIcSt11char_traitsIcESaIcEEEP4ItemELb1EEEEC1Ev+0x17>
  1b:	83 c4 10             	add    $0x10,%esp
  1e:	90                   	nop
  1f:	c9                   	leave  
  20:	c3                   	ret    

Disassembly of section .text._ZNSaINSt8__detail10_Hash_nodeISt4pairIKNSt7__cxx1112basic_stringIcSt11char_traitsIcESaIcEEEP4ItemELb1EEEED2Ev:

00000000 <_ZNSaINSt8__detail10_Hash_nodeISt4pairIKNSt7__cxx1112basic_stringIcSt11char_traitsIcESaIcEEEP4ItemELb1EEEED1Ev>:
   0:	55                   	push   %ebp
   1:	89 e5                	mov    %esp,%ebp
   3:	83 ec 08             	sub    $0x8,%esp
   6:	e8 fc ff ff ff       	call   7 <_ZNSaINSt8__detail10_Hash_nodeISt4pairIKNSt7__cxx1112basic_stringIcSt11char_traitsIcESaIcEEEP4ItemELb1EEEED1Ev+0x7>
   b:	05 01 00 00 00       	add    $0x1,%eax
  10:	83 ec 0c             	sub    $0xc,%esp
  13:	ff 75 08             	pushl  0x8(%ebp)
  16:	e8 fc ff ff ff       	call   17 <_ZNSaINSt8__detail10_Hash_nodeISt4pairIKNSt7__cxx1112basic_stringIcSt11char_traitsIcESaIcEEEP4ItemELb1EEEED1Ev+0x17>
  1b:	83 c4 10             	add    $0x10,%esp
  1e:	90                   	nop
  1f:	c9                   	leave  
  20:	c3                   	ret    

Disassembly of section .text._ZNSt10_HashtableINSt7__cxx1112basic_stringIcSt11char_traitsIcESaIcEEESt4pairIKS5_P4ItemESaISA_ENSt8__detail10_Select1stESt8equal_toIS5_ESt4hashIS5_ENSC_18_Mod_range_hashingENSC_20_Default_ranged_hashENSC_20_Prime_rehash_policyENSC_17_Hashtable_traitsILb1ELb0ELb1EEEED2Ev:

00000000 <_ZNSt10_HashtableINSt7__cxx1112basic_stringIcSt11char_traitsIcESaIcEEESt4pairIKS5_P4ItemESaISA_ENSt8__detail10_Select1stESt8equal_toIS5_ESt4hashIS5_ENSC_18_Mod_range_hashingENSC_20_Default_ranged_hashENSC_20_Prime_rehash_policyENSC_17_Hashtable_traitsILb1ELb0ELb1EEEED1Ev>:
   0:	55                   	push   %ebp
   1:	89 e5                	mov    %esp,%ebp
   3:	83 ec 08             	sub    $0x8,%esp
   6:	e8 fc ff ff ff       	call   7 <_ZNSt10_HashtableINSt7__cxx1112basic_stringIcSt11char_traitsIcESaIcEEESt4pairIKS5_P4ItemESaISA_ENSt8__detail10_Select1stESt8equal_toIS5_ESt4hashIS5_ENSC_18_Mod_range_hashingENSC_20_Default_ranged_hashENSC_20_Prime_rehash_policyENSC_17_Hashtable_traitsILb1ELb0ELb1EEEED1Ev+0x7>
   b:	05 01 00 00 00       	add    $0x1,%eax
  10:	83 ec 0c             	sub    $0xc,%esp
  13:	ff 75 08             	pushl  0x8(%ebp)
  16:	e8 fc ff ff ff       	call   17 <_ZNSt10_HashtableINSt7__cxx1112basic_stringIcSt11char_traitsIcESaIcEEESt4pairIKS5_P4ItemESaISA_ENSt8__detail10_Select1stESt8equal_toIS5_ESt4hashIS5_ENSC_18_Mod_range_hashingENSC_20_Default_ranged_hashENSC_20_Prime_rehash_policyENSC_17_Hashtable_traitsILb1ELb0ELb1EEEED1Ev+0x17>
  1b:	83 c4 10             	add    $0x10,%esp
  1e:	83 ec 0c             	sub    $0xc,%esp
  21:	ff 75 08             	pushl  0x8(%ebp)
  24:	e8 fc ff ff ff       	call   25 <_ZNSt10_HashtableINSt7__cxx1112basic_stringIcSt11char_traitsIcESaIcEEESt4pairIKS5_P4ItemESaISA_ENSt8__detail10_Select1stESt8equal_toIS5_ESt4hashIS5_ENSC_18_Mod_range_hashingENSC_20_Default_ranged_hashENSC_20_Prime_rehash_policyENSC_17_Hashtable_traitsILb1ELb0ELb1EEEED1Ev+0x25>
  29:	83 c4 10             	add    $0x10,%esp
  2c:	83 ec 0c             	sub    $0xc,%esp
  2f:	ff 75 08             	pushl  0x8(%ebp)
  32:	e8 fc ff ff ff       	call   33 <_ZNSt10_HashtableINSt7__cxx1112basic_stringIcSt11char_traitsIcESaIcEEESt4pairIKS5_P4ItemESaISA_ENSt8__detail10_Select1stESt8equal_toIS5_ESt4hashIS5_ENSC_18_Mod_range_hashingENSC_20_Default_ranged_hashENSC_20_Prime_rehash_policyENSC_17_Hashtable_traitsILb1ELb0ELb1EEEED1Ev+0x33>
  37:	83 c4 10             	add    $0x10,%esp
  3a:	90                   	nop
  3b:	c9                   	leave  
  3c:	c3                   	ret    

Disassembly of section .text._ZNSt8__detail21_Hashtable_ebo_helperILi0ESaINS_10_Hash_nodeISt4pairIKNSt7__cxx1112basic_stringIcSt11char_traitsIcESaIcEEESt13unordered_mapIS8_iSt4hashIS8_ESt8equal_toIS8_ESaIS2_IS9_iEEEELb1EEEELb1EED2Ev:

00000000 <_ZNSt8__detail21_Hashtable_ebo_helperILi0ESaINS_10_Hash_nodeISt4pairIKNSt7__cxx1112basic_stringIcSt11char_traitsIcESaIcEEESt13unordered_mapIS8_iSt4hashIS8_ESt8equal_toIS8_ESaIS2_IS9_iEEEELb1EEEELb1EED1Ev>:
   0:	55                   	push   %ebp
   1:	89 e5                	mov    %esp,%ebp
   3:	83 ec 08             	sub    $0x8,%esp
   6:	e8 fc ff ff ff       	call   7 <_ZNSt8__detail21_Hashtable_ebo_helperILi0ESaINS_10_Hash_nodeISt4pairIKNSt7__cxx1112basic_stringIcSt11char_traitsIcESaIcEEESt13unordered_mapIS8_iSt4hashIS8_ESt8equal_toIS8_ESaIS2_IS9_iEEEELb1EEEELb1EED1Ev+0x7>
   b:	05 01 00 00 00       	add    $0x1,%eax
  10:	83 ec 0c             	sub    $0xc,%esp
  13:	ff 75 08             	pushl  0x8(%ebp)
  16:	e8 fc ff ff ff       	call   17 <_ZNSt8__detail21_Hashtable_ebo_helperILi0ESaINS_10_Hash_nodeISt4pairIKNSt7__cxx1112basic_stringIcSt11char_traitsIcESaIcEEESt13unordered_mapIS8_iSt4hashIS8_ESt8equal_toIS8_ESaIS2_IS9_iEEEELb1EEEELb1EED1Ev+0x17>
  1b:	83 c4 10             	add    $0x10,%esp
  1e:	90                   	nop
  1f:	c9                   	leave  
  20:	c3                   	ret    

Disassembly of section .text._ZNSt8__detail16_Hashtable_allocISaINS_10_Hash_nodeISt4pairIKNSt7__cxx1112basic_stringIcSt11char_traitsIcESaIcEEESt13unordered_mapIS8_iSt4hashIS8_ESt8equal_toIS8_ESaIS2_IS9_iEEEELb1EEEEED2Ev:

00000000 <_ZNSt8__detail16_Hashtable_allocISaINS_10_Hash_nodeISt4pairIKNSt7__cxx1112basic_stringIcSt11char_traitsIcESaIcEEESt13unordered_mapIS8_iSt4hashIS8_ESt8equal_toIS8_ESaIS2_IS9_iEEEELb1EEEEED1Ev>:
   0:	55                   	push   %ebp
   1:	89 e5                	mov    %esp,%ebp
   3:	83 ec 08             	sub    $0x8,%esp
   6:	e8 fc ff ff ff       	call   7 <_ZNSt8__detail16_Hashtable_allocISaINS_10_Hash_nodeISt4pairIKNSt7__cxx1112basic_stringIcSt11char_traitsIcESaIcEEESt13unordered_mapIS8_iSt4hashIS8_ESt8equal_toIS8_ESaIS2_IS9_iEEEELb1EEEEED1Ev+0x7>
   b:	05 01 00 00 00       	add    $0x1,%eax
  10:	83 ec 0c             	sub    $0xc,%esp
  13:	ff 75 08             	pushl  0x8(%ebp)
  16:	e8 fc ff ff ff       	call   17 <_ZNSt8__detail16_Hashtable_allocISaINS_10_Hash_nodeISt4pairIKNSt7__cxx1112basic_stringIcSt11char_traitsIcESaIcEEESt13unordered_mapIS8_iSt4hashIS8_ESt8equal_toIS8_ESaIS2_IS9_iEEEELb1EEEEED1Ev+0x17>
  1b:	83 c4 10             	add    $0x10,%esp
  1e:	90                   	nop
  1f:	c9                   	leave  
  20:	c3                   	ret    

Disassembly of section .text._ZNSt10_HashtableINSt7__cxx1112basic_stringIcSt11char_traitsIcESaIcEEESt4pairIKS5_St13unordered_mapIS5_iSt4hashIS5_ESt8equal_toIS5_ESaIS6_IS7_iEEEESaISG_ENSt8__detail10_Select1stESC_SA_NSI_18_Mod_range_hashingENSI_20_Default_ranged_hashENSI_20_Prime_rehash_policyENSI_17_Hashtable_traitsILb1ELb0ELb1EEEED2Ev:

00000000 <_ZNSt10_HashtableINSt7__cxx1112basic_stringIcSt11char_traitsIcESaIcEEESt4pairIKS5_St13unordered_mapIS5_iSt4hashIS5_ESt8equal_toIS5_ESaIS6_IS7_iEEEESaISG_ENSt8__detail10_Select1stESC_SA_NSI_18_Mod_range_hashingENSI_20_Default_ranged_hashENSI_20_Prime_rehash_policyENSI_17_Hashtable_traitsILb1ELb0ELb1EEEED1Ev>:
   0:	55                   	push   %ebp
   1:	89 e5                	mov    %esp,%ebp
   3:	83 ec 08             	sub    $0x8,%esp
   6:	e8 fc ff ff ff       	call   7 <_ZNSt10_HashtableINSt7__cxx1112basic_stringIcSt11char_traitsIcESaIcEEESt4pairIKS5_St13unordered_mapIS5_iSt4hashIS5_ESt8equal_toIS5_ESaIS6_IS7_iEEEESaISG_ENSt8__detail10_Select1stESC_SA_NSI_18_Mod_range_hashingENSI_20_Default_ranged_hashENSI_20_Prime_rehash_policyENSI_17_Hashtable_traitsILb1ELb0ELb1EEEED1Ev+0x7>
   b:	05 01 00 00 00       	add    $0x1,%eax
  10:	83 ec 0c             	sub    $0xc,%esp
  13:	ff 75 08             	pushl  0x8(%ebp)
  16:	e8 fc ff ff ff       	call   17 <_ZNSt10_HashtableINSt7__cxx1112basic_stringIcSt11char_traitsIcESaIcEEESt4pairIKS5_St13unordered_mapIS5_iSt4hashIS5_ESt8equal_toIS5_ESaIS6_IS7_iEEEESaISG_ENSt8__detail10_Select1stESC_SA_NSI_18_Mod_range_hashingENSI_20_Default_ranged_hashENSI_20_Prime_rehash_policyENSI_17_Hashtable_traitsILb1ELb0ELb1EEEED1Ev+0x17>
  1b:	83 c4 10             	add    $0x10,%esp
  1e:	83 ec 0c             	sub    $0xc,%esp
  21:	ff 75 08             	pushl  0x8(%ebp)
  24:	e8 fc ff ff ff       	call   25 <_ZNSt10_HashtableINSt7__cxx1112basic_stringIcSt11char_traitsIcESaIcEEESt4pairIKS5_St13unordered_mapIS5_iSt4hashIS5_ESt8equal_toIS5_ESaIS6_IS7_iEEEESaISG_ENSt8__detail10_Select1stESC_SA_NSI_18_Mod_range_hashingENSI_20_Default_ranged_hashENSI_20_Prime_rehash_policyENSI_17_Hashtable_traitsILb1ELb0ELb1EEEED1Ev+0x25>
  29:	83 c4 10             	add    $0x10,%esp
  2c:	83 ec 0c             	sub    $0xc,%esp
  2f:	ff 75 08             	pushl  0x8(%ebp)
  32:	e8 fc ff ff ff       	call   33 <_ZNSt10_HashtableINSt7__cxx1112basic_stringIcSt11char_traitsIcESaIcEEESt4pairIKS5_St13unordered_mapIS5_iSt4hashIS5_ESt8equal_toIS5_ESaIS6_IS7_iEEEESaISG_ENSt8__detail10_Select1stESC_SA_NSI_18_Mod_range_hashingENSI_20_Default_ranged_hashENSI_20_Prime_rehash_policyENSI_17_Hashtable_traitsILb1ELb0ELb1EEEED1Ev+0x33>
  37:	83 c4 10             	add    $0x10,%esp
  3a:	90                   	nop
  3b:	c9                   	leave  
  3c:	c3                   	ret    

Disassembly of section .text._ZNSt12_Vector_baseINSt7__cxx1112basic_stringIcSt11char_traitsIcESaIcEEESaIS5_EE12_Vector_implC2Ev:

00000000 <_ZNSt12_Vector_baseINSt7__cxx1112basic_stringIcSt11char_traitsIcESaIcEEESaIS5_EE12_Vector_implC1Ev>:
   0:	55                   	push   %ebp
   1:	89 e5                	mov    %esp,%ebp
   3:	83 ec 08             	sub    $0x8,%esp
   6:	e8 fc ff ff ff       	call   7 <_ZNSt12_Vector_baseINSt7__cxx1112basic_stringIcSt11char_traitsIcESaIcEEESaIS5_EE12_Vector_implC1Ev+0x7>
   b:	05 01 00 00 00       	add    $0x1,%eax
  10:	83 ec 0c             	sub    $0xc,%esp
  13:	ff 75 08             	pushl  0x8(%ebp)
  16:	e8 fc ff ff ff       	call   17 <_ZNSt12_Vector_baseINSt7__cxx1112basic_stringIcSt11char_traitsIcESaIcEEESaIS5_EE12_Vector_implC1Ev+0x17>
  1b:	83 c4 10             	add    $0x10,%esp
  1e:	8b 45 08             	mov    0x8(%ebp),%eax
  21:	83 ec 0c             	sub    $0xc,%esp
  24:	50                   	push   %eax
  25:	e8 fc ff ff ff       	call   26 <_ZNSt12_Vector_baseINSt7__cxx1112basic_stringIcSt11char_traitsIcESaIcEEESaIS5_EE12_Vector_implC1Ev+0x26>
  2a:	83 c4 10             	add    $0x10,%esp
  2d:	90                   	nop
  2e:	c9                   	leave  
  2f:	c3                   	ret    

Disassembly of section .text._ZNSt12_Vector_baseINSt7__cxx1112basic_stringIcSt11char_traitsIcESaIcEEESaIS5_EED2Ev:

00000000 <_ZNSt12_Vector_baseINSt7__cxx1112basic_stringIcSt11char_traitsIcESaIcEEESaIS5_EED1Ev>:
   0:	55                   	push   %ebp
   1:	89 e5                	mov    %esp,%ebp
   3:	83 ec 08             	sub    $0x8,%esp
   6:	e8 fc ff ff ff       	call   7 <_ZNSt12_Vector_baseINSt7__cxx1112basic_stringIcSt11char_traitsIcESaIcEEESaIS5_EED1Ev+0x7>
   b:	05 01 00 00 00       	add    $0x1,%eax
  10:	8b 45 08             	mov    0x8(%ebp),%eax
  13:	8b 50 08             	mov    0x8(%eax),%edx
  16:	8b 45 08             	mov    0x8(%ebp),%eax
  19:	8b 08                	mov    (%eax),%ecx
  1b:	89 d0                	mov    %edx,%eax
  1d:	29 c8                	sub    %ecx,%eax
  1f:	c1 f8 03             	sar    $0x3,%eax
  22:	69 c0 ab aa aa aa    	imul   $0xaaaaaaab,%eax,%eax
  28:	89 c2                	mov    %eax,%edx
  2a:	8b 45 08             	mov    0x8(%ebp),%eax
  2d:	8b 00                	mov    (%eax),%eax
  2f:	83 ec 04             	sub    $0x4,%esp
  32:	52                   	push   %edx
  33:	50                   	push   %eax
  34:	ff 75 08             	pushl  0x8(%ebp)
  37:	e8 fc ff ff ff       	call   38 <_ZNSt12_Vector_baseINSt7__cxx1112basic_stringIcSt11char_traitsIcESaIcEEESaIS5_EED1Ev+0x38>
  3c:	83 c4 10             	add    $0x10,%esp
  3f:	8b 45 08             	mov    0x8(%ebp),%eax
  42:	83 ec 0c             	sub    $0xc,%esp
  45:	50                   	push   %eax
  46:	e8 fc ff ff ff       	call   47 <_ZNSt12_Vector_baseINSt7__cxx1112basic_stringIcSt11char_traitsIcESaIcEEESaIS5_EED1Ev+0x47>
  4b:	83 c4 10             	add    $0x10,%esp
  4e:	90                   	nop
  4f:	c9                   	leave  
  50:	c3                   	ret    

Disassembly of section .text._ZNSt13unordered_mapINSt7__cxx1112basic_stringIcSt11char_traitsIcESaIcEEES_IS5_iSt4hashIS5_ESt8equal_toIS5_ESaISt4pairIKS5_iEEES7_S9_SaISA_ISB_SE_EEE4findERSB_:

00000000 <_ZNSt13unordered_mapINSt7__cxx1112basic_stringIcSt11char_traitsIcESaIcEEES_IS5_iSt4hashIS5_ESt8equal_toIS5_ESaISt4pairIKS5_iEEES7_S9_SaISA_ISB_SE_EEE4findERSB_>:
   0:	55                   	push   %ebp
   1:	89 e5                	mov    %esp,%ebp
   3:	83 ec 28             	sub    $0x28,%esp
   6:	e8 fc ff ff ff       	call   7 <_ZNSt13unordered_mapINSt7__cxx1112basic_stringIcSt11char_traitsIcESaIcEEES_IS5_iSt4hashIS5_ESt8equal_toIS5_ESaISt4pairIKS5_iEEES7_S9_SaISA_ISB_SE_EEE4findERSB_+0x7>
   b:	05 01 00 00 00       	add    $0x1,%eax
  10:	8b 45 08             	mov    0x8(%ebp),%eax
  13:	89 45 e4             	mov    %eax,-0x1c(%ebp)
  16:	8b 45 0c             	mov    0xc(%ebp),%eax
  19:	89 45 e0             	mov    %eax,-0x20(%ebp)
  1c:	8b 45 10             	mov    0x10(%ebp),%eax
  1f:	89 45 dc             	mov    %eax,-0x24(%ebp)
  22:	65 a1 14 00 00 00    	mov    %gs:0x14,%eax
  28:	89 45 f4             	mov    %eax,-0xc(%ebp)
  2b:	31 c0                	xor    %eax,%eax
  2d:	8b 55 e0             	mov    -0x20(%ebp),%edx
  30:	8b 45 e4             	mov    -0x1c(%ebp),%eax
  33:	83 ec 04             	sub    $0x4,%esp
  36:	ff 75 dc             	pushl  -0x24(%ebp)
  39:	52                   	push   %edx
  3a:	50                   	push   %eax
  3b:	e8 fc ff ff ff       	call   3c <_ZNSt13unordered_mapINSt7__cxx1112basic_stringIcSt11char_traitsIcESaIcEEES_IS5_iSt4hashIS5_ESt8equal_toIS5_ESaISt4pairIKS5_iEEES7_S9_SaISA_ISB_SE_EEE4findERSB_+0x3c>
  40:	83 c4 0c             	add    $0xc,%esp
  43:	90                   	nop
  44:	8b 45 f4             	mov    -0xc(%ebp),%eax
  47:	65 2b 05 14 00 00 00 	sub    %gs:0x14,%eax
  4e:	74 05                	je     55 <_ZNSt13unordered_mapINSt7__cxx1112basic_stringIcSt11char_traitsIcESaIcEEES_IS5_iSt4hashIS5_ESt8equal_toIS5_ESaISt4pairIKS5_iEEES7_S9_SaISA_ISB_SE_EEE4findERSB_+0x55>
  50:	e8 fc ff ff ff       	call   51 <_ZNSt13unordered_mapINSt7__cxx1112basic_stringIcSt11char_traitsIcESaIcEEES_IS5_iSt4hashIS5_ESt8equal_toIS5_ESaISt4pairIKS5_iEEES7_S9_SaISA_ISB_SE_EEE4findERSB_+0x51>
  55:	8b 45 e4             	mov    -0x1c(%ebp),%eax
  58:	c9                   	leave  
  59:	c2 04 00             	ret    $0x4

Disassembly of section .text._ZNSt13unordered_mapINSt7__cxx1112basic_stringIcSt11char_traitsIcESaIcEEES_IS5_iSt4hashIS5_ESt8equal_toIS5_ESaISt4pairIKS5_iEEES7_S9_SaISA_ISB_SE_EEE3endEv:

00000000 <_ZNSt13unordered_mapINSt7__cxx1112basic_stringIcSt11char_traitsIcESaIcEEES_IS5_iSt4hashIS5_ESt8equal_toIS5_ESaISt4pairIKS5_iEEES7_S9_SaISA_ISB_SE_EEE3endEv>:
   0:	55                   	push   %ebp
   1:	89 e5                	mov    %esp,%ebp
   3:	83 ec 28             	sub    $0x28,%esp
   6:	e8 fc ff ff ff       	call   7 <_ZNSt13unordered_mapINSt7__cxx1112basic_stringIcSt11char_traitsIcESaIcEEES_IS5_iSt4hashIS5_ESt8equal_toIS5_ESaISt4pairIKS5_iEEES7_S9_SaISA_ISB_SE_EEE3endEv+0x7>
   b:	05 01 00 00 00       	add    $0x1,%eax
  10:	8b 45 08             	mov    0x8(%ebp),%eax
  13:	89 45 e4             	mov    %eax,-0x1c(%ebp)
  16:	8b 45 0c             	mov    0xc(%ebp),%eax
  19:	89 45 e0             	mov    %eax,-0x20(%ebp)
  1c:	65 a1 14 00 00 00    	mov    %gs:0x14,%eax
  22:	89 45 f4             	mov    %eax,-0xc(%ebp)
  25:	31 c0                	xor    %eax,%eax
  27:	8b 55 e0             	mov    -0x20(%ebp),%edx
  2a:	8b 45 e4             	mov    -0x1c(%ebp),%eax
  2d:	83 ec 08             	sub    $0x8,%esp
  30:	52                   	push   %edx
  31:	50                   	push   %eax
  32:	e8 fc ff ff ff       	call   33 <_ZNSt13unordered_mapINSt7__cxx1112basic_stringIcSt11char_traitsIcESaIcEEES_IS5_iSt4hashIS5_ESt8equal_toIS5_ESaISt4pairIKS5_iEEES7_S9_SaISA_ISB_SE_EEE3endEv+0x33>
  37:	83 c4 0c             	add    $0xc,%esp
  3a:	90                   	nop
  3b:	8b 45 f4             	mov    -0xc(%ebp),%eax
  3e:	65 2b 05 14 00 00 00 	sub    %gs:0x14,%eax
  45:	74 05                	je     4c <_ZNSt13unordered_mapINSt7__cxx1112basic_stringIcSt11char_traitsIcESaIcEEES_IS5_iSt4hashIS5_ESt8equal_toIS5_ESaISt4pairIKS5_iEEES7_S9_SaISA_ISB_SE_EEE3endEv+0x4c>
  47:	e8 fc ff ff ff       	call   48 <_ZNSt13unordered_mapINSt7__cxx1112basic_stringIcSt11char_traitsIcESaIcEEES_IS5_iSt4hashIS5_ESt8equal_toIS5_ESaISt4pairIKS5_iEEES7_S9_SaISA_ISB_SE_EEE3endEv+0x48>
  4c:	8b 45 e4             	mov    -0x1c(%ebp),%eax
  4f:	c9                   	leave  
  50:	c2 04 00             	ret    $0x4

Disassembly of section .text._ZNSt8__detaileqISt4pairIKNSt7__cxx1112basic_stringIcSt11char_traitsIcESaIcEEESt13unordered_mapIS7_iSt4hashIS7_ESt8equal_toIS7_ESaIS1_IS8_iEEEELb1EEEbRKNS_19_Node_iterator_baseIT_XT0_EEESM_:

